GAS LISTING c:\tmp\ccNEBtDk.s 			page 1


   1              		.file	"euclid.c"
   2              		.text
   3              	Ltext0:
   4              		.def	___main;	.scl	2;	.type	32;	.endef
   5              		.section .rdata,"dr"
   6              	LC0:
   7 0000 6900     		.ascii "i\0"
   8              	LC1:
   9 0002 6A00     		.ascii "j\0"
  10              	LC2:
  11 0004 61203D20 		.ascii "a = %d\12\0"
  11      25640A00 
  12              	LC3:
  13 000c 62203D20 		.ascii "b = %d\12\0"
  13      25640A00 
  14              	LC4:
  15 0014 68203D20 		.ascii "h = %d\12\0"
  15      25640A00 
  16              		.text
  17              		.globl	_main
  18              		.def	_main;	.scl	2;	.type	32;	.endef
  19              	_main:
  20              	LFB16:
  21              		.file 1 "output/euclid.c"
   1:output/euclid.c **** /**
   2:output/euclid.c ****  * @file euclid.c
   3:output/euclid.c ****  *
   4:output/euclid.c ****  * C code generated from program euclid.fcl written in a fictive
   5:output/euclid.c ****  * computer language.
   6:output/euclid.c ****  *
   7:output/euclid.c ****  * This file has been created with help of st4Render.m, see
   8:output/euclid.c ****  * https://sourceforge.net/projects/stringtemplate-for-octave/
   9:output/euclid.c ****  *
  10:output/euclid.c ****  * Copyright (C) 2016 Peter Vranken (mailto:Peter_Vranken@Yahoo.de)
  11:output/euclid.c ****  *
  12:output/euclid.c ****  * This program is free software: you can redistribute it and/or modify it
  13:output/euclid.c ****  * under the terms of the GNU General Public License as published by the
  14:output/euclid.c ****  * Free Software Foundation, either version 3 of the License, or (at your
  15:output/euclid.c ****  * option) any later version.
  16:output/euclid.c ****  *
  17:output/euclid.c ****  * This program is distributed in the hope that it will be useful, but
  18:output/euclid.c ****  * WITHOUT ANY WARRANTY; without even the implied warranty of
  19:output/euclid.c ****  * MERCHANTABILITY or FITNESS FOR A PARTICULAR PURPOSE. See the GNU
  20:output/euclid.c ****  * General Public License for more details.
  21:output/euclid.c ****  *
  22:output/euclid.c ****  * You should have received a copy of the GNU General Public License along
  23:output/euclid.c ****  * with this program. If not, see <http://www.gnu.org/licenses/>.
  24:output/euclid.c ****  */
  25:output/euclid.c **** 
  26:output/euclid.c **** /*
  27:output/euclid.c ****  * Include files
  28:output/euclid.c ****  */
  29:output/euclid.c **** 
  30:output/euclid.c **** #include <stdlib.h>
  31:output/euclid.c **** #include <stdio.h>
  32:output/euclid.c **** #include <string.h>
  33:output/euclid.c **** 
GAS LISTING c:\tmp\ccNEBtDk.s 			page 2


  34:output/euclid.c **** 
  35:output/euclid.c **** /*
  36:output/euclid.c ****  * Defines
  37:output/euclid.c ****  */
  38:output/euclid.c **** 
  39:output/euclid.c **** /* Definition of the pseudo assembler statements. */
  40:output/euclid.c **** #define jmp(target)         {goto target;}
  41:output/euclid.c **** #define breq(cond,target)   {if((cond)==0) goto target;}
  42:output/euclid.c **** #define load(R,val)         {(R) = (val);}
  43:output/euclid.c **** #define store(sym,val)      {(sym) = (val);}
  44:output/euclid.c **** #define eq(R,op)            {(R) = (R)==(op);}
  45:output/euclid.c **** #define neq(R,op)           {(R) = (R)!=(op);}
  46:output/euclid.c **** #define lt(R,op)            {(R) = (R)<(op);}
  47:output/euclid.c **** #define leq(R,op)           {(R) = (R)<=(op);}
  48:output/euclid.c **** #define gt(R,op)            {(R) = (R)>(op);}
  49:output/euclid.c **** #define geq(R,op)           {(R) = (R)>=(op);}
  50:output/euclid.c **** #define or(R,op)            {(R) = (R)||(op);}
  51:output/euclid.c **** #define and(R,op)           {(R) = (R)&&(op);}
  52:output/euclid.c **** #define add(R,op)           {(R) += (op);}
  53:output/euclid.c **** #define sub(R,op)           {(R) -= (op);}
  54:output/euclid.c **** #define mul(R,op)           {(R) *= (op);}
  55:output/euclid.c **** #define div(R,op)           {(R) /= (op);}
  56:output/euclid.c **** #define mod(R,op)           {(R) %= (op);}
  57:output/euclid.c **** 
  58:output/euclid.c **** 
  59:output/euclid.c **** /*
  60:output/euclid.c ****  * Local type definitions
  61:output/euclid.c ****  */
  62:output/euclid.c **** 
  63:output/euclid.c **** 
  64:output/euclid.c **** /*
  65:output/euclid.c ****  * Local prototypes
  66:output/euclid.c ****  */
  67:output/euclid.c **** 
  68:output/euclid.c **** 
  69:output/euclid.c **** /*
  70:output/euclid.c ****  * Data definitions
  71:output/euclid.c ****  */
  72:output/euclid.c **** 
  73:output/euclid.c **** 
  74:output/euclid.c **** /*
  75:output/euclid.c ****  * Function implementation
  76:output/euclid.c ****  */
  77:output/euclid.c **** 
  78:output/euclid.c **** /**
  79:output/euclid.c ****  * Application main entry point. The code from the fictive computer language can be run
  80:output/euclid.c ****  * with command line provided variable values. All variables, which do not get any value in
  81:output/euclid.c ****  * the computer program itself are considered external interfaces and are connected to the
  82:output/euclid.c ****  * command line. Each two consecutive command line arguments are a pair of variable name
  83:output/euclid.c ****  * and variable value. The value is a signed integer value and it is propagated to the
  84:output/euclid.c ****  * program variable of given name.
  85:output/euclid.c ****  *   @return
  86:output/euclid.c ****  * Always 0, no error conditions are implemented.
  87:output/euclid.c ****  *   @param noArgs
  88:output/euclid.c ****  * Number of command line arguments. Need to be even.
  89:output/euclid.c ****  *   @param argAry
  90:output/euclid.c ****  * Array of command line arguments.
GAS LISTING c:\tmp\ccNEBtDk.s 			page 3


  91:output/euclid.c ****  */
  92:output/euclid.c **** int main(int noArgs, const char * argAry[])
  93:output/euclid.c **** {
  22              		.loc 1 93 0
  23              		.cfi_startproc
  24 0000 55       		pushl	%ebp
  25              		.cfi_def_cfa_offset 8
  26              		.cfi_offset 5, -8
  27 0001 89E5     		movl	%esp, %ebp
  28              		.cfi_def_cfa_register 5
  29 0003 83E4F0   		andl	$-16, %esp
  30 0006 83EC30   		subl	$48, %esp
  31              		.loc 1 93 0
  32 0009 E8000000 		call	___main
  32      00
  94:output/euclid.c ****     /* Initialization of required variables. */
  95:output/euclid.c ****     int i=0, j=0, a=0, b=0, h=0;
  33              		.loc 1 95 0
  34 000e C744242C 		movl	$0, 44(%esp)
  34      00000000 
  35 0016 C7442428 		movl	$0, 40(%esp)
  35      00000000 
  36 001e C7442424 		movl	$0, 36(%esp)
  36      00000000 
  37 0026 C7442420 		movl	$0, 32(%esp)
  37      00000000 
  38 002e C744241C 		movl	$0, 28(%esp)
  38      00000000 
  96:output/euclid.c **** 
  97:output/euclid.c **** 
  98:output/euclid.c ****     /* The following variables is not assigned any value in the source program
  99:output/euclid.c ****        euclid.fcl. We consider them system inputs and connect them to the
 100:output/euclid.c ****        application interface. */
 101:output/euclid.c ****     int _idxArg;
 102:output/euclid.c ****     for(_idxArg=1; _idxArg+1<noArgs; _idxArg+=2)
  39              		.loc 1 102 0
  40 0036 C7442418 		movl	$1, 24(%esp)
  40      01000000 
  41 003e E9930000 		jmp	L2
  41      00
  42              	L5:
 103:output/euclid.c ****     {
 104:output/euclid.c ****        if(strcmp(argAry[_idxArg], "i") == 0)	i = atoi(argAry[_idxArg+1]);
  43              		.loc 1 104 0
  44 0043 8B442418 		movl	24(%esp), %eax
  45 0047 8D148500 		leal	0(,%eax,4), %edx
  45      000000
  46 004e 8B450C   		movl	12(%ebp), %eax
  47 0051 01D0     		addl	%edx, %eax
  48 0053 8B00     		movl	(%eax), %eax
  49 0055 C7442404 		movl	$LC0, 4(%esp)
  49      00000000 
  50 005d 890424   		movl	%eax, (%esp)
  51 0060 E8000000 		call	_strcmp
  51      00
  52 0065 85C0     		testl	%eax, %eax
  53 0067 7521     		jne	L3
GAS LISTING c:\tmp\ccNEBtDk.s 			page 4


  54              		.loc 1 104 0 is_stmt 0 discriminator 1
  55 0069 8B442418 		movl	24(%esp), %eax
  56 006d 83C001   		addl	$1, %eax
  57 0070 8D148500 		leal	0(,%eax,4), %edx
  57      000000
  58 0077 8B450C   		movl	12(%ebp), %eax
  59 007a 01D0     		addl	%edx, %eax
  60 007c 8B00     		movl	(%eax), %eax
  61 007e 890424   		movl	%eax, (%esp)
  62 0081 E8000000 		call	_atoi
  62      00
  63 0086 8944242C 		movl	%eax, 44(%esp)
  64              	L3:
 105:output/euclid.c ****        if(strcmp(argAry[_idxArg], "j") == 0)	j = atoi(argAry[_idxArg+1]);
  65              		.loc 1 105 0 is_stmt 1
  66 008a 8B442418 		movl	24(%esp), %eax
  67 008e 8D148500 		leal	0(,%eax,4), %edx
  67      000000
  68 0095 8B450C   		movl	12(%ebp), %eax
  69 0098 01D0     		addl	%edx, %eax
  70 009a 8B00     		movl	(%eax), %eax
  71 009c C7442404 		movl	$LC1, 4(%esp)
  71      02000000 
  72 00a4 890424   		movl	%eax, (%esp)
  73 00a7 E8000000 		call	_strcmp
  73      00
  74 00ac 85C0     		testl	%eax, %eax
  75 00ae 7521     		jne	L4
  76              		.loc 1 105 0 is_stmt 0 discriminator 1
  77 00b0 8B442418 		movl	24(%esp), %eax
  78 00b4 83C001   		addl	$1, %eax
  79 00b7 8D148500 		leal	0(,%eax,4), %edx
  79      000000
  80 00be 8B450C   		movl	12(%ebp), %eax
  81 00c1 01D0     		addl	%edx, %eax
  82 00c3 8B00     		movl	(%eax), %eax
  83 00c5 890424   		movl	%eax, (%esp)
  84 00c8 E8000000 		call	_atoi
  84      00
  85 00cd 89442428 		movl	%eax, 40(%esp)
  86              	L4:
 102:output/euclid.c ****     {
  87              		.loc 1 102 0 is_stmt 1 discriminator 2
  88 00d1 83442418 		addl	$2, 24(%esp)
  88      02
  89              	L2:
 102:output/euclid.c ****     {
  90              		.loc 1 102 0 is_stmt 0 discriminator 1
  91 00d6 8B442418 		movl	24(%esp), %eax
  92 00da 83C001   		addl	$1, %eax
  93 00dd 3B4508   		cmpl	8(%ebp), %eax
  94 00e0 0F8C5DFF 		jl	L5
  94      FFFF
 106:output/euclid.c ****     }
 107:output/euclid.c **** 
 108:output/euclid.c **** 
 109:output/euclid.c ****     /* Definition of temporary variables for expression evaluation. */
GAS LISTING c:\tmp\ccNEBtDk.s 			page 5


 110:output/euclid.c ****     int _R00;
 111:output/euclid.c **** 
 112:output/euclid.c ****     /* Find the greatest common divisor of two integer numbers. */
 113:output/euclid.c ****     /* An implementation of Euklid's algorithm. */
 114:output/euclid.c ****     /* See http://de.wikipedia.org/wiki/Euklidischer_Algorithmus and particularly */
 115:output/euclid.c ****     /* http://de.wikipedia.org/wiki/Euklidischer_Algorithmus#Beschreibung_durch_Pseudocode */
 116:output/euclid.c ****     /* (visited on Mar 6, 2014) for details on Euclid's algorithm. */
 117:output/euclid.c ****     /* Inputs are i and j. */
 118:output/euclid.c ****     store(a, i)
  95              		.loc 1 118 0 is_stmt 1
  96 00e6 8B44242C 		movl	44(%esp), %eax
  97 00ea 89442424 		movl	%eax, 36(%esp)
 119:output/euclid.c ****     store(b, j)
  98              		.loc 1 119 0
  99 00ee 8B442428 		movl	40(%esp), %eax
 100 00f2 89442420 		movl	%eax, 32(%esp)
 101              	L6:
 120:output/euclid.c ****     _loop_1:
 121:output/euclid.c ****     load(_R00, b)
 102              		.loc 1 121 0
 103 00f6 8B442420 		movl	32(%esp), %eax
 104 00fa 89442414 		movl	%eax, 20(%esp)
 122:output/euclid.c ****     eq(_R00, 0)
 105              		.loc 1 122 0
 106 00fe 837C2414 		cmpl	$0, 20(%esp)
 106      00
 107 0103 0F94C0   		sete	%al
 108 0106 0FB6C0   		movzbl	%al, %eax
 109 0109 89442414 		movl	%eax, 20(%esp)
 123:output/euclid.c ****     breq(_R00, _else_2)
 110              		.loc 1 123 0
 111 010d 837C2414 		cmpl	$0, 20(%esp)
 111      00
 112 0112 7502     		jne	L7
 113 0114 EB02     		jmp	L12
 114              	L7:
 124:output/euclid.c ****     jmp(_exit_loop_1)
 115              		.loc 1 124 0
 116 0116 EB2F     		jmp	L13
 117              	L8:
 118              	L12:
 119              	L10:
 125:output/euclid.c ****     jmp(_end_if_2)
 126:output/euclid.c ****     _else_2:
 127:output/euclid.c ****     _end_if_2:
 128:output/euclid.c ****     /* h always has the sign of a. */
 129:output/euclid.c ****     load(_R00, a)
 120              		.loc 1 129 0
 121 0118 8B442424 		movl	36(%esp), %eax
 122 011c 89442414 		movl	%eax, 20(%esp)
 130:output/euclid.c ****     mod(_R00, b)
 123              		.loc 1 130 0
 124 0120 8B442414 		movl	20(%esp), %eax
 125 0124 99       		cltd
 126 0125 F77C2420 		idivl	32(%esp)
 127 0129 89542414 		movl	%edx, 20(%esp)
 131:output/euclid.c ****     store(h, _R00)
GAS LISTING c:\tmp\ccNEBtDk.s 			page 6


 128              		.loc 1 131 0
 129 012d 8B442414 		movl	20(%esp), %eax
 130 0131 8944241C 		movl	%eax, 28(%esp)
 132:output/euclid.c ****     store(a, b)
 131              		.loc 1 132 0
 132 0135 8B442420 		movl	32(%esp), %eax
 133 0139 89442424 		movl	%eax, 36(%esp)
 133:output/euclid.c ****     store(b, h)
 134              		.loc 1 133 0
 135 013d 8B44241C 		movl	28(%esp), %eax
 136 0141 89442420 		movl	%eax, 32(%esp)
 134:output/euclid.c ****     jmp(_loop_1)
 137              		.loc 1 134 0
 138 0145 EBAF     		jmp	L6
 139              	L13:
 140              	L9:
 135:output/euclid.c ****     _exit_loop_1:
 136:output/euclid.c ****     /* a holds the result. */
 137:output/euclid.c **** 
 138:output/euclid.c **** 
 139:output/euclid.c ****     /* All variables are printed at the end as a kind of program output. */
 140:output/euclid.c ****     printf("a = %d\n", a);
 141              		.loc 1 140 0
 142 0147 8B442424 		movl	36(%esp), %eax
 143 014b 89442404 		movl	%eax, 4(%esp)
 144 014f C7042404 		movl	$LC2, (%esp)
 144      000000
 145 0156 E8000000 		call	_printf
 145      00
 141:output/euclid.c ****     printf("b = %d\n", b);
 146              		.loc 1 141 0
 147 015b 8B442420 		movl	32(%esp), %eax
 148 015f 89442404 		movl	%eax, 4(%esp)
 149 0163 C704240C 		movl	$LC3, (%esp)
 149      000000
 150 016a E8000000 		call	_printf
 150      00
 142:output/euclid.c ****     printf("h = %d\n", h);
 151              		.loc 1 142 0
 152 016f 8B44241C 		movl	28(%esp), %eax
 153 0173 89442404 		movl	%eax, 4(%esp)
 154 0177 C7042414 		movl	$LC4, (%esp)
 154      000000
 155 017e E8000000 		call	_printf
 155      00
 143:output/euclid.c **** 
 144:output/euclid.c **** 
 145:output/euclid.c ****     return 0;
 156              		.loc 1 145 0
 157 0183 B8000000 		movl	$0, %eax
 157      00
 146:output/euclid.c **** 
 147:output/euclid.c **** } /* End of main */...
 158              		.loc 1 147 0
 159 0188 C9       		leave
 160              		.cfi_restore 5
 161              		.cfi_def_cfa 4, 4
GAS LISTING c:\tmp\ccNEBtDk.s 			page 7


 162 0189 C3       		ret
 163              		.cfi_endproc
 164              	LFE16:
 165              	Letext0:
 166 018a 9090     		.section	.debug_info,"dr"
 167              	Ldebug_info0:
 168 0000 46020000 		.long	0x246
 169 0004 0400     		.word	0x4
 170 0006 00000000 		.secrel32	Ldebug_abbrev0
 171 000a 04       		.byte	0x4
 172 000b 01       		.uleb128 0x1
 173 000c 474E5520 		.ascii "GNU C 4.9.3 -mavx -mtune=generic -march=pentiumpro -ggdb3 -O0\0"
 173      4320342E 
 173      392E3320 
 173      2D6D6176 
 173      78202D6D 
 174 004a 01       		.byte	0x1
 175 004b 6F757470 		.ascii "output\\euclid.c\0"
 175      75745C65 
 175      75636C69 
 175      642E6300 
 176 005b 433A5C75 		.ascii "C:\\user\\vranken\\projects\\ST4ForOctaveAtSourceForge\\trunk\\samples\\compiler\0"
 176      7365725C 
 176      7672616E 
 176      6B656E5C 
 176      70726F6A 
 177 00a5 00000000 		.long	Ltext0
 178 00a9 8A010000 		.long	Letext0-Ltext0
 179 00ad 00000000 		.secrel32	Ldebug_line0
 180 00b1 00000000 		.secrel32	Ldebug_macro0
 181 00b5 02       		.uleb128 0x2
 182 00b6 01       		.byte	0x1
 183 00b7 06       		.byte	0x6
 184 00b8 63686172 		.ascii "char\0"
 184      00
 185 00bd 02       		.uleb128 0x2
 186 00be 04       		.byte	0x4
 187 00bf 07       		.byte	0x7
 188 00c0 756E7369 		.ascii "unsigned int\0"
 188      676E6564 
 188      20696E74 
 188      00
 189 00cd 02       		.uleb128 0x2
 190 00ce 04       		.byte	0x4
 191 00cf 05       		.byte	0x5
 192 00d0 696E7400 		.ascii "int\0"
 193 00d4 02       		.uleb128 0x2
 194 00d5 02       		.byte	0x2
 195 00d6 07       		.byte	0x7
 196 00d7 73686F72 		.ascii "short unsigned int\0"
 196      7420756E 
 196      7369676E 
 196      65642069 
 196      6E7400
 197 00ea 02       		.uleb128 0x2
 198 00eb 04       		.byte	0x4
 199 00ec 05       		.byte	0x5
GAS LISTING c:\tmp\ccNEBtDk.s 			page 8


 200 00ed 6C6F6E67 		.ascii "long int\0"
 200      20696E74 
 200      00
 201 00f6 02       		.uleb128 0x2
 202 00f7 08       		.byte	0x8
 203 00f8 05       		.byte	0x5
 204 00f9 6C6F6E67 		.ascii "long long int\0"
 204      206C6F6E 
 204      6720696E 
 204      7400
 205 0107 02       		.uleb128 0x2
 206 0108 04       		.byte	0x4
 207 0109 07       		.byte	0x7
 208 010a 73697A65 		.ascii "sizetype\0"
 208      74797065 
 208      00
 209 0113 02       		.uleb128 0x2
 210 0114 04       		.byte	0x4
 211 0115 07       		.byte	0x7
 212 0116 6C6F6E67 		.ascii "long unsigned int\0"
 212      20756E73 
 212      69676E65 
 212      6420696E 
 212      7400
 213 0128 02       		.uleb128 0x2
 214 0129 01       		.byte	0x1
 215 012a 08       		.byte	0x8
 216 012b 756E7369 		.ascii "unsigned char\0"
 216      676E6564 
 216      20636861 
 216      7200
 217 0139 02       		.uleb128 0x2
 218 013a 08       		.byte	0x8
 219 013b 04       		.byte	0x4
 220 013c 646F7562 		.ascii "double\0"
 220      6C6500
 221 0143 02       		.uleb128 0x2
 222 0144 04       		.byte	0x4
 223 0145 04       		.byte	0x4
 224 0146 666C6F61 		.ascii "float\0"
 224      7400
 225 014c 02       		.uleb128 0x2
 226 014d 0C       		.byte	0xc
 227 014e 04       		.byte	0x4
 228 014f 6C6F6E67 		.ascii "long double\0"
 228      20646F75 
 228      626C6500 
 229 015b 03       		.uleb128 0x3
 230 015c 6D61696E 		.ascii "main\0"
 230      00
 231 0161 01       		.byte	0x1
 232 0162 5C       		.byte	0x5c
 233 0163 CD000000 		.long	0xcd
 234 0167 00000000 		.long	LFB16
 235 016b 8A010000 		.long	LFE16-LFB16
 236 016f 01       		.uleb128 0x1
 237 0170 9C       		.byte	0x9c
GAS LISTING c:\tmp\ccNEBtDk.s 			page 9


 238 0171 38020000 		.long	0x238
 239 0175 04       		.uleb128 0x4
 240 0176 6E6F4172 		.ascii "noArgs\0"
 240      677300
 241 017d 01       		.byte	0x1
 242 017e 5C       		.byte	0x5c
 243 017f CD000000 		.long	0xcd
 244 0183 02       		.uleb128 0x2
 245 0184 91       		.byte	0x91
 246 0185 00       		.sleb128 0
 247 0186 04       		.uleb128 0x4
 248 0187 61726741 		.ascii "argAry\0"
 248      727900
 249 018e 01       		.byte	0x1
 250 018f 5C       		.byte	0x5c
 251 0190 38020000 		.long	0x238
 252 0194 02       		.uleb128 0x2
 253 0195 91       		.byte	0x91
 254 0196 04       		.sleb128 4
 255 0197 05       		.uleb128 0x5
 256 0198 6900     		.ascii "i\0"
 257 019a 01       		.byte	0x1
 258 019b 5F       		.byte	0x5f
 259 019c CD000000 		.long	0xcd
 260 01a0 02       		.uleb128 0x2
 261 01a1 74       		.byte	0x74
 262 01a2 2C       		.sleb128 44
 263 01a3 05       		.uleb128 0x5
 264 01a4 6A00     		.ascii "j\0"
 265 01a6 01       		.byte	0x1
 266 01a7 5F       		.byte	0x5f
 267 01a8 CD000000 		.long	0xcd
 268 01ac 02       		.uleb128 0x2
 269 01ad 74       		.byte	0x74
 270 01ae 28       		.sleb128 40
 271 01af 05       		.uleb128 0x5
 272 01b0 6100     		.ascii "a\0"
 273 01b2 01       		.byte	0x1
 274 01b3 5F       		.byte	0x5f
 275 01b4 CD000000 		.long	0xcd
 276 01b8 02       		.uleb128 0x2
 277 01b9 74       		.byte	0x74
 278 01ba 24       		.sleb128 36
 279 01bb 05       		.uleb128 0x5
 280 01bc 6200     		.ascii "b\0"
 281 01be 01       		.byte	0x1
 282 01bf 5F       		.byte	0x5f
 283 01c0 CD000000 		.long	0xcd
 284 01c4 02       		.uleb128 0x2
 285 01c5 74       		.byte	0x74
 286 01c6 20       		.sleb128 32
 287 01c7 05       		.uleb128 0x5
 288 01c8 6800     		.ascii "h\0"
 289 01ca 01       		.byte	0x1
 290 01cb 5F       		.byte	0x5f
 291 01cc CD000000 		.long	0xcd
 292 01d0 02       		.uleb128 0x2
GAS LISTING c:\tmp\ccNEBtDk.s 			page 10


 293 01d1 74       		.byte	0x74
 294 01d2 1C       		.sleb128 28
 295 01d3 05       		.uleb128 0x5
 296 01d4 5F696478 		.ascii "_idxArg\0"
 296      41726700 
 297 01dc 01       		.byte	0x1
 298 01dd 65       		.byte	0x65
 299 01de CD000000 		.long	0xcd
 300 01e2 02       		.uleb128 0x2
 301 01e3 74       		.byte	0x74
 302 01e4 18       		.sleb128 24
 303 01e5 05       		.uleb128 0x5
 304 01e6 5F523030 		.ascii "_R00\0"
 304      00
 305 01eb 01       		.byte	0x1
 306 01ec 6E       		.byte	0x6e
 307 01ed CD000000 		.long	0xcd
 308 01f1 02       		.uleb128 0x2
 309 01f2 74       		.byte	0x74
 310 01f3 14       		.sleb128 20
 311 01f4 06       		.uleb128 0x6
 312 01f5 5F6C6F6F 		.ascii "_loop_1\0"
 312      705F3100 
 313 01fd 01       		.byte	0x1
 314 01fe 78       		.byte	0x78
 315 01ff F6000000 		.long	L6
 316 0203 06       		.uleb128 0x6
 317 0204 5F656C73 		.ascii "_else_2\0"
 317      655F3200 
 318 020c 01       		.byte	0x1
 319 020d 7E       		.byte	0x7e
 320 020e 18010000 		.long	L8
 321 0212 06       		.uleb128 0x6
 322 0213 5F657869 		.ascii "_exit_loop_1\0"
 322      745F6C6F 
 322      6F705F31 
 322      00
 323 0220 01       		.byte	0x1
 324 0221 87       		.byte	0x87
 325 0222 47010000 		.long	L9
 326 0226 06       		.uleb128 0x6
 327 0227 5F656E64 		.ascii "_end_if_2\0"
 327      5F69665F 
 327      3200
 328 0231 01       		.byte	0x1
 329 0232 7F       		.byte	0x7f
 330 0233 18010000 		.long	L10
 331 0237 00       		.byte	0
 332 0238 07       		.uleb128 0x7
 333 0239 04       		.byte	0x4
 334 023a 3E020000 		.long	0x23e
 335 023e 07       		.uleb128 0x7
 336 023f 04       		.byte	0x4
 337 0240 44020000 		.long	0x244
 338 0244 08       		.uleb128 0x8
 339 0245 B5000000 		.long	0xb5
 340 0249 00       		.byte	0
GAS LISTING c:\tmp\ccNEBtDk.s 			page 11


 341              		.section	.debug_abbrev,"dr"
 342              	Ldebug_abbrev0:
 343 0000 01       		.uleb128 0x1
 344 0001 11       		.uleb128 0x11
 345 0002 01       		.byte	0x1
 346 0003 25       		.uleb128 0x25
 347 0004 08       		.uleb128 0x8
 348 0005 13       		.uleb128 0x13
 349 0006 0B       		.uleb128 0xb
 350 0007 03       		.uleb128 0x3
 351 0008 08       		.uleb128 0x8
 352 0009 1B       		.uleb128 0x1b
 353 000a 08       		.uleb128 0x8
 354 000b 11       		.uleb128 0x11
 355 000c 01       		.uleb128 0x1
 356 000d 12       		.uleb128 0x12
 357 000e 06       		.uleb128 0x6
 358 000f 10       		.uleb128 0x10
 359 0010 17       		.uleb128 0x17
 360 0011 9942     		.uleb128 0x2119
 361 0013 17       		.uleb128 0x17
 362 0014 00       		.byte	0
 363 0015 00       		.byte	0
 364 0016 02       		.uleb128 0x2
 365 0017 24       		.uleb128 0x24
 366 0018 00       		.byte	0
 367 0019 0B       		.uleb128 0xb
 368 001a 0B       		.uleb128 0xb
 369 001b 3E       		.uleb128 0x3e
 370 001c 0B       		.uleb128 0xb
 371 001d 03       		.uleb128 0x3
 372 001e 08       		.uleb128 0x8
 373 001f 00       		.byte	0
 374 0020 00       		.byte	0
 375 0021 03       		.uleb128 0x3
 376 0022 2E       		.uleb128 0x2e
 377 0023 01       		.byte	0x1
 378 0024 3F       		.uleb128 0x3f
 379 0025 19       		.uleb128 0x19
 380 0026 03       		.uleb128 0x3
 381 0027 08       		.uleb128 0x8
 382 0028 3A       		.uleb128 0x3a
 383 0029 0B       		.uleb128 0xb
 384 002a 3B       		.uleb128 0x3b
 385 002b 0B       		.uleb128 0xb
 386 002c 27       		.uleb128 0x27
 387 002d 19       		.uleb128 0x19
 388 002e 49       		.uleb128 0x49
 389 002f 13       		.uleb128 0x13
 390 0030 11       		.uleb128 0x11
 391 0031 01       		.uleb128 0x1
 392 0032 12       		.uleb128 0x12
 393 0033 06       		.uleb128 0x6
 394 0034 40       		.uleb128 0x40
 395 0035 18       		.uleb128 0x18
 396 0036 9642     		.uleb128 0x2116
 397 0038 19       		.uleb128 0x19
GAS LISTING c:\tmp\ccNEBtDk.s 			page 12


 398 0039 01       		.uleb128 0x1
 399 003a 13       		.uleb128 0x13
 400 003b 00       		.byte	0
 401 003c 00       		.byte	0
 402 003d 04       		.uleb128 0x4
 403 003e 05       		.uleb128 0x5
 404 003f 00       		.byte	0
 405 0040 03       		.uleb128 0x3
 406 0041 08       		.uleb128 0x8
 407 0042 3A       		.uleb128 0x3a
 408 0043 0B       		.uleb128 0xb
 409 0044 3B       		.uleb128 0x3b
 410 0045 0B       		.uleb128 0xb
 411 0046 49       		.uleb128 0x49
 412 0047 13       		.uleb128 0x13
 413 0048 02       		.uleb128 0x2
 414 0049 18       		.uleb128 0x18
 415 004a 00       		.byte	0
 416 004b 00       		.byte	0
 417 004c 05       		.uleb128 0x5
 418 004d 34       		.uleb128 0x34
 419 004e 00       		.byte	0
 420 004f 03       		.uleb128 0x3
 421 0050 08       		.uleb128 0x8
 422 0051 3A       		.uleb128 0x3a
 423 0052 0B       		.uleb128 0xb
 424 0053 3B       		.uleb128 0x3b
 425 0054 0B       		.uleb128 0xb
 426 0055 49       		.uleb128 0x49
 427 0056 13       		.uleb128 0x13
 428 0057 02       		.uleb128 0x2
 429 0058 18       		.uleb128 0x18
 430 0059 00       		.byte	0
 431 005a 00       		.byte	0
 432 005b 06       		.uleb128 0x6
 433 005c 0A       		.uleb128 0xa
 434 005d 00       		.byte	0
 435 005e 03       		.uleb128 0x3
 436 005f 08       		.uleb128 0x8
 437 0060 3A       		.uleb128 0x3a
 438 0061 0B       		.uleb128 0xb
 439 0062 3B       		.uleb128 0x3b
 440 0063 0B       		.uleb128 0xb
 441 0064 11       		.uleb128 0x11
 442 0065 01       		.uleb128 0x1
 443 0066 00       		.byte	0
 444 0067 00       		.byte	0
 445 0068 07       		.uleb128 0x7
 446 0069 0F       		.uleb128 0xf
 447 006a 00       		.byte	0
 448 006b 0B       		.uleb128 0xb
 449 006c 0B       		.uleb128 0xb
 450 006d 49       		.uleb128 0x49
 451 006e 13       		.uleb128 0x13
 452 006f 00       		.byte	0
 453 0070 00       		.byte	0
 454 0071 08       		.uleb128 0x8
GAS LISTING c:\tmp\ccNEBtDk.s 			page 13


 455 0072 26       		.uleb128 0x26
 456 0073 00       		.byte	0
 457 0074 49       		.uleb128 0x49
 458 0075 13       		.uleb128 0x13
 459 0076 00       		.byte	0
 460 0077 00       		.byte	0
 461 0078 00       		.byte	0
 462              		.section	.debug_aranges,"dr"
 463 0000 1C000000 		.long	0x1c
 464 0004 0200     		.word	0x2
 465 0006 00000000 		.secrel32	Ldebug_info0
 466 000a 04       		.byte	0x4
 467 000b 00       		.byte	0
 468 000c 0000     		.word	0
 469 000e 0000     		.word	0
 470 0010 00000000 		.long	Ltext0
 471 0014 8A010000 		.long	Letext0-Ltext0
 472 0018 00000000 		.long	0
 473 001c 00000000 		.long	0
 474              		.section	.debug_macro,"dr"
 475              	Ldebug_macro0:
 476 0000 0400     		.word	0x4
 477 0002 02       		.byte	0x2
 478 0003 00000000 		.secrel32	Ldebug_line0
 479 0007 01       		.byte	0x1
 480 0008 00       		.uleb128 0
 481 0009 5F5F5354 		.ascii "__STDC__ 1\0"
 481      44435F5F 
 481      203100
 482 0014 01       		.byte	0x1
 483 0015 00       		.uleb128 0
 484 0016 5F5F5354 		.ascii "__STDC_HOSTED__ 1\0"
 484      44435F48 
 484      4F535445 
 484      445F5F20 
 484      3100
 485 0028 01       		.byte	0x1
 486 0029 00       		.uleb128 0
 487 002a 5F5F474E 		.ascii "__GNUC__ 4\0"
 487      55435F5F 
 487      203400
 488 0035 01       		.byte	0x1
 489 0036 00       		.uleb128 0
 490 0037 5F5F474E 		.ascii "__GNUC_MINOR__ 9\0"
 490      55435F4D 
 490      494E4F52 
 490      5F5F2039 
 490      00
 491 0048 01       		.byte	0x1
 492 0049 00       		.uleb128 0
 493 004a 5F5F474E 		.ascii "__GNUC_PATCHLEVEL__ 3\0"
 493      55435F50 
 493      41544348 
 493      4C455645 
 493      4C5F5F20 
 494 0060 01       		.byte	0x1
 495 0061 00       		.uleb128 0
GAS LISTING c:\tmp\ccNEBtDk.s 			page 14


 496 0062 5F5F5645 		.ascii "__VERSION__ \"4.9.3\"\0"
 496      5253494F 
 496      4E5F5F20 
 496      22342E39 
 496      2E332200 
 497 0076 01       		.byte	0x1
 498 0077 00       		.uleb128 0
 499 0078 5F5F4154 		.ascii "__ATOMIC_RELAXED 0\0"
 499      4F4D4943 
 499      5F52454C 
 499      41584544 
 499      203000
 500 008b 01       		.byte	0x1
 501 008c 00       		.uleb128 0
 502 008d 5F5F4154 		.ascii "__ATOMIC_SEQ_CST 5\0"
 502      4F4D4943 
 502      5F534551 
 502      5F435354 
 502      203500
 503 00a0 01       		.byte	0x1
 504 00a1 00       		.uleb128 0
 505 00a2 5F5F4154 		.ascii "__ATOMIC_ACQUIRE 2\0"
 505      4F4D4943 
 505      5F414351 
 505      55495245 
 505      203200
 506 00b5 01       		.byte	0x1
 507 00b6 00       		.uleb128 0
 508 00b7 5F5F4154 		.ascii "__ATOMIC_RELEASE 3\0"
 508      4F4D4943 
 508      5F52454C 
 508      45415345 
 508      203300
 509 00ca 01       		.byte	0x1
 510 00cb 00       		.uleb128 0
 511 00cc 5F5F4154 		.ascii "__ATOMIC_ACQ_REL 4\0"
 511      4F4D4943 
 511      5F414351 
 511      5F52454C 
 511      203400
 512 00df 01       		.byte	0x1
 513 00e0 00       		.uleb128 0
 514 00e1 5F5F4154 		.ascii "__ATOMIC_CONSUME 1\0"
 514      4F4D4943 
 514      5F434F4E 
 514      53554D45 
 514      203100
 515 00f4 01       		.byte	0x1
 516 00f5 00       		.uleb128 0
 517 00f6 5F5F4649 		.ascii "__FINITE_MATH_ONLY__ 0\0"
 517      4E495445 
 517      5F4D4154 
 517      485F4F4E 
 517      4C595F5F 
 518 010d 01       		.byte	0x1
 519 010e 00       		.uleb128 0
 520 010f 5F5F5349 		.ascii "__SIZEOF_INT__ 4\0"
GAS LISTING c:\tmp\ccNEBtDk.s 			page 15


 520      5A454F46 
 520      5F494E54 
 520      5F5F2034 
 520      00
 521 0120 01       		.byte	0x1
 522 0121 00       		.uleb128 0
 523 0122 5F5F5349 		.ascii "__SIZEOF_LONG__ 4\0"
 523      5A454F46 
 523      5F4C4F4E 
 523      475F5F20 
 523      3400
 524 0134 01       		.byte	0x1
 525 0135 00       		.uleb128 0
 526 0136 5F5F5349 		.ascii "__SIZEOF_LONG_LONG__ 8\0"
 526      5A454F46 
 526      5F4C4F4E 
 526      475F4C4F 
 526      4E475F5F 
 527 014d 01       		.byte	0x1
 528 014e 00       		.uleb128 0
 529 014f 5F5F5349 		.ascii "__SIZEOF_SHORT__ 2\0"
 529      5A454F46 
 529      5F53484F 
 529      52545F5F 
 529      203200
 530 0162 01       		.byte	0x1
 531 0163 00       		.uleb128 0
 532 0164 5F5F5349 		.ascii "__SIZEOF_FLOAT__ 4\0"
 532      5A454F46 
 532      5F464C4F 
 532      41545F5F 
 532      203400
 533 0177 01       		.byte	0x1
 534 0178 00       		.uleb128 0
 535 0179 5F5F5349 		.ascii "__SIZEOF_DOUBLE__ 8\0"
 535      5A454F46 
 535      5F444F55 
 535      424C455F 
 535      5F203800 
 536 018d 01       		.byte	0x1
 537 018e 00       		.uleb128 0
 538 018f 5F5F5349 		.ascii "__SIZEOF_LONG_DOUBLE__ 12\0"
 538      5A454F46 
 538      5F4C4F4E 
 538      475F444F 
 538      55424C45 
 539 01a9 01       		.byte	0x1
 540 01aa 00       		.uleb128 0
 541 01ab 5F5F5349 		.ascii "__SIZEOF_SIZE_T__ 4\0"
 541      5A454F46 
 541      5F53495A 
 541      455F545F 
 541      5F203400 
 542 01bf 01       		.byte	0x1
 543 01c0 00       		.uleb128 0
 544 01c1 5F5F4348 		.ascii "__CHAR_BIT__ 8\0"
 544      41525F42 
GAS LISTING c:\tmp\ccNEBtDk.s 			page 16


 544      49545F5F 
 544      203800
 545 01d0 01       		.byte	0x1
 546 01d1 00       		.uleb128 0
 547 01d2 5F5F4249 		.ascii "__BIGGEST_ALIGNMENT__ 32\0"
 547      47474553 
 547      545F414C 
 547      49474E4D 
 547      454E545F 
 548 01eb 01       		.byte	0x1
 549 01ec 00       		.uleb128 0
 550 01ed 5F5F4F52 		.ascii "__ORDER_LITTLE_ENDIAN__ 1234\0"
 550      4445525F 
 550      4C495454 
 550      4C455F45 
 550      4E444941 
 551 020a 01       		.byte	0x1
 552 020b 00       		.uleb128 0
 553 020c 5F5F4F52 		.ascii "__ORDER_BIG_ENDIAN__ 4321\0"
 553      4445525F 
 553      4249475F 
 553      454E4449 
 553      414E5F5F 
 554 0226 01       		.byte	0x1
 555 0227 00       		.uleb128 0
 556 0228 5F5F4F52 		.ascii "__ORDER_PDP_ENDIAN__ 3412\0"
 556      4445525F 
 556      5044505F 
 556      454E4449 
 556      414E5F5F 
 557 0242 01       		.byte	0x1
 558 0243 00       		.uleb128 0
 559 0244 5F5F4259 		.ascii "__BYTE_ORDER__ __ORDER_LITTLE_ENDIAN__\0"
 559      54455F4F 
 559      52444552 
 559      5F5F205F 
 559      5F4F5244 
 560 026b 01       		.byte	0x1
 561 026c 00       		.uleb128 0
 562 026d 5F5F464C 		.ascii "__FLOAT_WORD_ORDER__ __ORDER_LITTLE_ENDIAN__\0"
 562      4F41545F 
 562      574F5244 
 562      5F4F5244 
 562      45525F5F 
 563 029a 01       		.byte	0x1
 564 029b 00       		.uleb128 0
 565 029c 5F5F5349 		.ascii "__SIZEOF_POINTER__ 4\0"
 565      5A454F46 
 565      5F504F49 
 565      4E544552 
 565      5F5F2034 
 566 02b1 01       		.byte	0x1
 567 02b2 00       		.uleb128 0
 568 02b3 5F5F5349 		.ascii "__SIZE_TYPE__ unsigned int\0"
 568      5A455F54 
 568      5950455F 
 568      5F20756E 
GAS LISTING c:\tmp\ccNEBtDk.s 			page 17


 568      7369676E 
 569 02ce 01       		.byte	0x1
 570 02cf 00       		.uleb128 0
 571 02d0 5F5F5054 		.ascii "__PTRDIFF_TYPE__ int\0"
 571      52444946 
 571      465F5459 
 571      50455F5F 
 571      20696E74 
 572 02e5 01       		.byte	0x1
 573 02e6 00       		.uleb128 0
 574 02e7 5F5F5743 		.ascii "__WCHAR_TYPE__ short unsigned int\0"
 574      4841525F 
 574      54595045 
 574      5F5F2073 
 574      686F7274 
 575 0309 01       		.byte	0x1
 576 030a 00       		.uleb128 0
 577 030b 5F5F5749 		.ascii "__WINT_TYPE__ short unsigned int\0"
 577      4E545F54 
 577      5950455F 
 577      5F207368 
 577      6F727420 
 578 032c 01       		.byte	0x1
 579 032d 00       		.uleb128 0
 580 032e 5F5F494E 		.ascii "__INTMAX_TYPE__ long long int\0"
 580      544D4158 
 580      5F545950 
 580      455F5F20 
 580      6C6F6E67 
 581 034c 01       		.byte	0x1
 582 034d 00       		.uleb128 0
 583 034e 5F5F5549 		.ascii "__UINTMAX_TYPE__ long long unsigned int\0"
 583      4E544D41 
 583      585F5459 
 583      50455F5F 
 583      206C6F6E 
 584 0376 01       		.byte	0x1
 585 0377 00       		.uleb128 0
 586 0378 5F5F4348 		.ascii "__CHAR16_TYPE__ short unsigned int\0"
 586      41523136 
 586      5F545950 
 586      455F5F20 
 586      73686F72 
 587 039b 01       		.byte	0x1
 588 039c 00       		.uleb128 0
 589 039d 5F5F4348 		.ascii "__CHAR32_TYPE__ unsigned int\0"
 589      41523332 
 589      5F545950 
 589      455F5F20 
 589      756E7369 
 590 03ba 01       		.byte	0x1
 591 03bb 00       		.uleb128 0
 592 03bc 5F5F5349 		.ascii "__SIG_ATOMIC_TYPE__ int\0"
 592      475F4154 
 592      4F4D4943 
 592      5F545950 
 592      455F5F20 
GAS LISTING c:\tmp\ccNEBtDk.s 			page 18


 593 03d4 01       		.byte	0x1
 594 03d5 00       		.uleb128 0
 595 03d6 5F5F494E 		.ascii "__INT8_TYPE__ signed char\0"
 595      54385F54 
 595      5950455F 
 595      5F207369 
 595      676E6564 
 596 03f0 01       		.byte	0x1
 597 03f1 00       		.uleb128 0
 598 03f2 5F5F494E 		.ascii "__INT16_TYPE__ short int\0"
 598      5431365F 
 598      54595045 
 598      5F5F2073 
 598      686F7274 
 599 040b 01       		.byte	0x1
 600 040c 00       		.uleb128 0
 601 040d 5F5F494E 		.ascii "__INT32_TYPE__ int\0"
 601      5433325F 
 601      54595045 
 601      5F5F2069 
 601      6E7400
 602 0420 01       		.byte	0x1
 603 0421 00       		.uleb128 0
 604 0422 5F5F494E 		.ascii "__INT64_TYPE__ long long int\0"
 604      5436345F 
 604      54595045 
 604      5F5F206C 
 604      6F6E6720 
 605 043f 01       		.byte	0x1
 606 0440 00       		.uleb128 0
 607 0441 5F5F5549 		.ascii "__UINT8_TYPE__ unsigned char\0"
 607      4E54385F 
 607      54595045 
 607      5F5F2075 
 607      6E736967 
 608 045e 01       		.byte	0x1
 609 045f 00       		.uleb128 0
 610 0460 5F5F5549 		.ascii "__UINT16_TYPE__ short unsigned int\0"
 610      4E543136 
 610      5F545950 
 610      455F5F20 
 610      73686F72 
 611 0483 01       		.byte	0x1
 612 0484 00       		.uleb128 0
 613 0485 5F5F5549 		.ascii "__UINT32_TYPE__ unsigned int\0"
 613      4E543332 
 613      5F545950 
 613      455F5F20 
 613      756E7369 
 614 04a2 01       		.byte	0x1
 615 04a3 00       		.uleb128 0
 616 04a4 5F5F5549 		.ascii "__UINT64_TYPE__ long long unsigned int\0"
 616      4E543634 
 616      5F545950 
 616      455F5F20 
 616      6C6F6E67 
 617 04cb 01       		.byte	0x1
GAS LISTING c:\tmp\ccNEBtDk.s 			page 19


 618 04cc 00       		.uleb128 0
 619 04cd 5F5F494E 		.ascii "__INT_LEAST8_TYPE__ signed char\0"
 619      545F4C45 
 619      41535438 
 619      5F545950 
 619      455F5F20 
 620 04ed 01       		.byte	0x1
 621 04ee 00       		.uleb128 0
 622 04ef 5F5F494E 		.ascii "__INT_LEAST16_TYPE__ short int\0"
 622      545F4C45 
 622      41535431 
 622      365F5459 
 622      50455F5F 
 623 050e 01       		.byte	0x1
 624 050f 00       		.uleb128 0
 625 0510 5F5F494E 		.ascii "__INT_LEAST32_TYPE__ int\0"
 625      545F4C45 
 625      41535433 
 625      325F5459 
 625      50455F5F 
 626 0529 01       		.byte	0x1
 627 052a 00       		.uleb128 0
 628 052b 5F5F494E 		.ascii "__INT_LEAST64_TYPE__ long long int\0"
 628      545F4C45 
 628      41535436 
 628      345F5459 
 628      50455F5F 
 629 054e 01       		.byte	0x1
 630 054f 00       		.uleb128 0
 631 0550 5F5F5549 		.ascii "__UINT_LEAST8_TYPE__ unsigned char\0"
 631      4E545F4C 
 631      45415354 
 631      385F5459 
 631      50455F5F 
 632 0573 01       		.byte	0x1
 633 0574 00       		.uleb128 0
 634 0575 5F5F5549 		.ascii "__UINT_LEAST16_TYPE__ short unsigned int\0"
 634      4E545F4C 
 634      45415354 
 634      31365F54 
 634      5950455F 
 635 059e 01       		.byte	0x1
 636 059f 00       		.uleb128 0
 637 05a0 5F5F5549 		.ascii "__UINT_LEAST32_TYPE__ unsigned int\0"
 637      4E545F4C 
 637      45415354 
 637      33325F54 
 637      5950455F 
 638 05c3 01       		.byte	0x1
 639 05c4 00       		.uleb128 0
 640 05c5 5F5F5549 		.ascii "__UINT_LEAST64_TYPE__ long long unsigned int\0"
 640      4E545F4C 
 640      45415354 
 640      36345F54 
 640      5950455F 
 641 05f2 01       		.byte	0x1
 642 05f3 00       		.uleb128 0
GAS LISTING c:\tmp\ccNEBtDk.s 			page 20


 643 05f4 5F5F494E 		.ascii "__INT_FAST8_TYPE__ signed char\0"
 643      545F4641 
 643      5354385F 
 643      54595045 
 643      5F5F2073 
 644 0613 01       		.byte	0x1
 645 0614 00       		.uleb128 0
 646 0615 5F5F494E 		.ascii "__INT_FAST16_TYPE__ short int\0"
 646      545F4641 
 646      53543136 
 646      5F545950 
 646      455F5F20 
 647 0633 01       		.byte	0x1
 648 0634 00       		.uleb128 0
 649 0635 5F5F494E 		.ascii "__INT_FAST32_TYPE__ int\0"
 649      545F4641 
 649      53543332 
 649      5F545950 
 649      455F5F20 
 650 064d 01       		.byte	0x1
 651 064e 00       		.uleb128 0
 652 064f 5F5F494E 		.ascii "__INT_FAST64_TYPE__ long long int\0"
 652      545F4641 
 652      53543634 
 652      5F545950 
 652      455F5F20 
 653 0671 01       		.byte	0x1
 654 0672 00       		.uleb128 0
 655 0673 5F5F5549 		.ascii "__UINT_FAST8_TYPE__ unsigned char\0"
 655      4E545F46 
 655      41535438 
 655      5F545950 
 655      455F5F20 
 656 0695 01       		.byte	0x1
 657 0696 00       		.uleb128 0
 658 0697 5F5F5549 		.ascii "__UINT_FAST16_TYPE__ short unsigned int\0"
 658      4E545F46 
 658      41535431 
 658      365F5459 
 658      50455F5F 
 659 06bf 01       		.byte	0x1
 660 06c0 00       		.uleb128 0
 661 06c1 5F5F5549 		.ascii "__UINT_FAST32_TYPE__ unsigned int\0"
 661      4E545F46 
 661      41535433 
 661      325F5459 
 661      50455F5F 
 662 06e3 01       		.byte	0x1
 663 06e4 00       		.uleb128 0
 664 06e5 5F5F5549 		.ascii "__UINT_FAST64_TYPE__ long long unsigned int\0"
 664      4E545F46 
 664      41535436 
 664      345F5459 
 664      50455F5F 
 665 0711 01       		.byte	0x1
 666 0712 00       		.uleb128 0
 667 0713 5F5F494E 		.ascii "__INTPTR_TYPE__ int\0"
GAS LISTING c:\tmp\ccNEBtDk.s 			page 21


 667      54505452 
 667      5F545950 
 667      455F5F20 
 667      696E7400 
 668 0727 01       		.byte	0x1
 669 0728 00       		.uleb128 0
 670 0729 5F5F5549 		.ascii "__UINTPTR_TYPE__ unsigned int\0"
 670      4E545054 
 670      525F5459 
 670      50455F5F 
 670      20756E73 
 671 0747 01       		.byte	0x1
 672 0748 00       		.uleb128 0
 673 0749 5F5F6861 		.ascii "__has_include(STR) __has_include__(STR)\0"
 673      735F696E 
 673      636C7564 
 673      65285354 
 673      5229205F 
 674 0771 01       		.byte	0x1
 675 0772 00       		.uleb128 0
 676 0773 5F5F6861 		.ascii "__has_include_next(STR) __has_include_next__(STR)\0"
 676      735F696E 
 676      636C7564 
 676      655F6E65 
 676      78742853 
 677 07a5 01       		.byte	0x1
 678 07a6 00       		.uleb128 0
 679 07a7 5F5F4758 		.ascii "__GXX_ABI_VERSION 1002\0"
 679      585F4142 
 679      495F5645 
 679      5253494F 
 679      4E203130 
 680 07be 01       		.byte	0x1
 681 07bf 00       		.uleb128 0
 682 07c0 5F5F5343 		.ascii "__SCHAR_MAX__ 127\0"
 682      4841525F 
 682      4D41585F 
 682      5F203132 
 682      3700
 683 07d2 01       		.byte	0x1
 684 07d3 00       		.uleb128 0
 685 07d4 5F5F5348 		.ascii "__SHRT_MAX__ 32767\0"
 685      52545F4D 
 685      41585F5F 
 685      20333237 
 685      363700
 686 07e7 01       		.byte	0x1
 687 07e8 00       		.uleb128 0
 688 07e9 5F5F494E 		.ascii "__INT_MAX__ 2147483647\0"
 688      545F4D41 
 688      585F5F20 
 688      32313437 
 688      34383336 
 689 0800 01       		.byte	0x1
 690 0801 00       		.uleb128 0
 691 0802 5F5F4C4F 		.ascii "__LONG_MAX__ 2147483647L\0"
 691      4E475F4D 
GAS LISTING c:\tmp\ccNEBtDk.s 			page 22


 691      41585F5F 
 691      20323134 
 691      37343833 
 692 081b 01       		.byte	0x1
 693 081c 00       		.uleb128 0
 694 081d 5F5F4C4F 		.ascii "__LONG_LONG_MAX__ 9223372036854775807LL\0"
 694      4E475F4C 
 694      4F4E475F 
 694      4D41585F 
 694      5F203932 
 695 0845 01       		.byte	0x1
 696 0846 00       		.uleb128 0
 697 0847 5F5F5743 		.ascii "__WCHAR_MAX__ 65535\0"
 697      4841525F 
 697      4D41585F 
 697      5F203635 
 697      35333500 
 698 085b 01       		.byte	0x1
 699 085c 00       		.uleb128 0
 700 085d 5F5F5743 		.ascii "__WCHAR_MIN__ 0\0"
 700      4841525F 
 700      4D494E5F 
 700      5F203000 
 701 086d 01       		.byte	0x1
 702 086e 00       		.uleb128 0
 703 086f 5F5F5749 		.ascii "__WINT_MAX__ 65535\0"
 703      4E545F4D 
 703      41585F5F 
 703      20363535 
 703      333500
 704 0882 01       		.byte	0x1
 705 0883 00       		.uleb128 0
 706 0884 5F5F5749 		.ascii "__WINT_MIN__ 0\0"
 706      4E545F4D 
 706      494E5F5F 
 706      203000
 707 0893 01       		.byte	0x1
 708 0894 00       		.uleb128 0
 709 0895 5F5F5054 		.ascii "__PTRDIFF_MAX__ 2147483647\0"
 709      52444946 
 709      465F4D41 
 709      585F5F20 
 709      32313437 
 710 08b0 01       		.byte	0x1
 711 08b1 00       		.uleb128 0
 712 08b2 5F5F5349 		.ascii "__SIZE_MAX__ 4294967295U\0"
 712      5A455F4D 
 712      41585F5F 
 712      20343239 
 712      34393637 
 713 08cb 01       		.byte	0x1
 714 08cc 00       		.uleb128 0
 715 08cd 5F5F494E 		.ascii "__INTMAX_MAX__ 9223372036854775807LL\0"
 715      544D4158 
 715      5F4D4158 
 715      5F5F2039 
 715      32323333 
GAS LISTING c:\tmp\ccNEBtDk.s 			page 23


 716 08f2 01       		.byte	0x1
 717 08f3 00       		.uleb128 0
 718 08f4 5F5F494E 		.ascii "__INTMAX_C(c) c ## LL\0"
 718      544D4158 
 718      5F432863 
 718      29206320 
 718      2323204C 
 719 090a 01       		.byte	0x1
 720 090b 00       		.uleb128 0
 721 090c 5F5F5549 		.ascii "__UINTMAX_MAX__ 18446744073709551615ULL\0"
 721      4E544D41 
 721      585F4D41 
 721      585F5F20 
 721      31383434 
 722 0934 01       		.byte	0x1
 723 0935 00       		.uleb128 0
 724 0936 5F5F5549 		.ascii "__UINTMAX_C(c) c ## ULL\0"
 724      4E544D41 
 724      585F4328 
 724      63292063 
 724      20232320 
 725 094e 01       		.byte	0x1
 726 094f 00       		.uleb128 0
 727 0950 5F5F5349 		.ascii "__SIG_ATOMIC_MAX__ 2147483647\0"
 727      475F4154 
 727      4F4D4943 
 727      5F4D4158 
 727      5F5F2032 
 728 096e 01       		.byte	0x1
 729 096f 00       		.uleb128 0
 730 0970 5F5F5349 		.ascii "__SIG_ATOMIC_MIN__ (-__SIG_ATOMIC_MAX__ - 1)\0"
 730      475F4154 
 730      4F4D4943 
 730      5F4D494E 
 730      5F5F2028 
 731 099d 01       		.byte	0x1
 732 099e 00       		.uleb128 0
 733 099f 5F5F494E 		.ascii "__INT8_MAX__ 127\0"
 733      54385F4D 
 733      41585F5F 
 733      20313237 
 733      00
 734 09b0 01       		.byte	0x1
 735 09b1 00       		.uleb128 0
 736 09b2 5F5F494E 		.ascii "__INT16_MAX__ 32767\0"
 736      5431365F 
 736      4D41585F 
 736      5F203332 
 736      37363700 
 737 09c6 01       		.byte	0x1
 738 09c7 00       		.uleb128 0
 739 09c8 5F5F494E 		.ascii "__INT32_MAX__ 2147483647\0"
 739      5433325F 
 739      4D41585F 
 739      5F203231 
 739      34373438 
 740 09e1 01       		.byte	0x1
GAS LISTING c:\tmp\ccNEBtDk.s 			page 24


 741 09e2 00       		.uleb128 0
 742 09e3 5F5F494E 		.ascii "__INT64_MAX__ 9223372036854775807LL\0"
 742      5436345F 
 742      4D41585F 
 742      5F203932 
 742      32333337 
 743 0a07 01       		.byte	0x1
 744 0a08 00       		.uleb128 0
 745 0a09 5F5F5549 		.ascii "__UINT8_MAX__ 255\0"
 745      4E54385F 
 745      4D41585F 
 745      5F203235 
 745      3500
 746 0a1b 01       		.byte	0x1
 747 0a1c 00       		.uleb128 0
 748 0a1d 5F5F5549 		.ascii "__UINT16_MAX__ 65535\0"
 748      4E543136 
 748      5F4D4158 
 748      5F5F2036 
 748      35353335 
 749 0a32 01       		.byte	0x1
 750 0a33 00       		.uleb128 0
 751 0a34 5F5F5549 		.ascii "__UINT32_MAX__ 4294967295U\0"
 751      4E543332 
 751      5F4D4158 
 751      5F5F2034 
 751      32393439 
 752 0a4f 01       		.byte	0x1
 753 0a50 00       		.uleb128 0
 754 0a51 5F5F5549 		.ascii "__UINT64_MAX__ 18446744073709551615ULL\0"
 754      4E543634 
 754      5F4D4158 
 754      5F5F2031 
 754      38343436 
 755 0a78 01       		.byte	0x1
 756 0a79 00       		.uleb128 0
 757 0a7a 5F5F494E 		.ascii "__INT_LEAST8_MAX__ 127\0"
 757      545F4C45 
 757      41535438 
 757      5F4D4158 
 757      5F5F2031 
 758 0a91 01       		.byte	0x1
 759 0a92 00       		.uleb128 0
 760 0a93 5F5F494E 		.ascii "__INT8_C(c) c\0"
 760      54385F43 
 760      28632920 
 760      6300
 761 0aa1 01       		.byte	0x1
 762 0aa2 00       		.uleb128 0
 763 0aa3 5F5F494E 		.ascii "__INT_LEAST16_MAX__ 32767\0"
 763      545F4C45 
 763      41535431 
 763      365F4D41 
 763      585F5F20 
 764 0abd 01       		.byte	0x1
 765 0abe 00       		.uleb128 0
 766 0abf 5F5F494E 		.ascii "__INT16_C(c) c\0"
GAS LISTING c:\tmp\ccNEBtDk.s 			page 25


 766      5431365F 
 766      43286329 
 766      206300
 767 0ace 01       		.byte	0x1
 768 0acf 00       		.uleb128 0
 769 0ad0 5F5F494E 		.ascii "__INT_LEAST32_MAX__ 2147483647\0"
 769      545F4C45 
 769      41535433 
 769      325F4D41 
 769      585F5F20 
 770 0aef 01       		.byte	0x1
 771 0af0 00       		.uleb128 0
 772 0af1 5F5F494E 		.ascii "__INT32_C(c) c\0"
 772      5433325F 
 772      43286329 
 772      206300
 773 0b00 01       		.byte	0x1
 774 0b01 00       		.uleb128 0
 775 0b02 5F5F494E 		.ascii "__INT_LEAST64_MAX__ 9223372036854775807LL\0"
 775      545F4C45 
 775      41535436 
 775      345F4D41 
 775      585F5F20 
 776 0b2c 01       		.byte	0x1
 777 0b2d 00       		.uleb128 0
 778 0b2e 5F5F494E 		.ascii "__INT64_C(c) c ## LL\0"
 778      5436345F 
 778      43286329 
 778      20632023 
 778      23204C4C 
 779 0b43 01       		.byte	0x1
 780 0b44 00       		.uleb128 0
 781 0b45 5F5F5549 		.ascii "__UINT_LEAST8_MAX__ 255\0"
 781      4E545F4C 
 781      45415354 
 781      385F4D41 
 781      585F5F20 
 782 0b5d 01       		.byte	0x1
 783 0b5e 00       		.uleb128 0
 784 0b5f 5F5F5549 		.ascii "__UINT8_C(c) c\0"
 784      4E54385F 
 784      43286329 
 784      206300
 785 0b6e 01       		.byte	0x1
 786 0b6f 00       		.uleb128 0
 787 0b70 5F5F5549 		.ascii "__UINT_LEAST16_MAX__ 65535\0"
 787      4E545F4C 
 787      45415354 
 787      31365F4D 
 787      41585F5F 
 788 0b8b 01       		.byte	0x1
 789 0b8c 00       		.uleb128 0
 790 0b8d 5F5F5549 		.ascii "__UINT16_C(c) c\0"
 790      4E543136 
 790      5F432863 
 790      29206300 
 791 0b9d 01       		.byte	0x1
GAS LISTING c:\tmp\ccNEBtDk.s 			page 26


 792 0b9e 00       		.uleb128 0
 793 0b9f 5F5F5549 		.ascii "__UINT_LEAST32_MAX__ 4294967295U\0"
 793      4E545F4C 
 793      45415354 
 793      33325F4D 
 793      41585F5F 
 794 0bc0 01       		.byte	0x1
 795 0bc1 00       		.uleb128 0
 796 0bc2 5F5F5549 		.ascii "__UINT32_C(c) c ## U\0"
 796      4E543332 
 796      5F432863 
 796      29206320 
 796      23232055 
 797 0bd7 01       		.byte	0x1
 798 0bd8 00       		.uleb128 0
 799 0bd9 5F5F5549 		.ascii "__UINT_LEAST64_MAX__ 18446744073709551615ULL\0"
 799      4E545F4C 
 799      45415354 
 799      36345F4D 
 799      41585F5F 
 800 0c06 01       		.byte	0x1
 801 0c07 00       		.uleb128 0
 802 0c08 5F5F5549 		.ascii "__UINT64_C(c) c ## ULL\0"
 802      4E543634 
 802      5F432863 
 802      29206320 
 802      23232055 
 803 0c1f 01       		.byte	0x1
 804 0c20 00       		.uleb128 0
 805 0c21 5F5F494E 		.ascii "__INT_FAST8_MAX__ 127\0"
 805      545F4641 
 805      5354385F 
 805      4D41585F 
 805      5F203132 
 806 0c37 01       		.byte	0x1
 807 0c38 00       		.uleb128 0
 808 0c39 5F5F494E 		.ascii "__INT_FAST16_MAX__ 32767\0"
 808      545F4641 
 808      53543136 
 808      5F4D4158 
 808      5F5F2033 
 809 0c52 01       		.byte	0x1
 810 0c53 00       		.uleb128 0
 811 0c54 5F5F494E 		.ascii "__INT_FAST32_MAX__ 2147483647\0"
 811      545F4641 
 811      53543332 
 811      5F4D4158 
 811      5F5F2032 
 812 0c72 01       		.byte	0x1
 813 0c73 00       		.uleb128 0
 814 0c74 5F5F494E 		.ascii "__INT_FAST64_MAX__ 9223372036854775807LL\0"
 814      545F4641 
 814      53543634 
 814      5F4D4158 
 814      5F5F2039 
 815 0c9d 01       		.byte	0x1
 816 0c9e 00       		.uleb128 0
GAS LISTING c:\tmp\ccNEBtDk.s 			page 27


 817 0c9f 5F5F5549 		.ascii "__UINT_FAST8_MAX__ 255\0"
 817      4E545F46 
 817      41535438 
 817      5F4D4158 
 817      5F5F2032 
 818 0cb6 01       		.byte	0x1
 819 0cb7 00       		.uleb128 0
 820 0cb8 5F5F5549 		.ascii "__UINT_FAST16_MAX__ 65535\0"
 820      4E545F46 
 820      41535431 
 820      365F4D41 
 820      585F5F20 
 821 0cd2 01       		.byte	0x1
 822 0cd3 00       		.uleb128 0
 823 0cd4 5F5F5549 		.ascii "__UINT_FAST32_MAX__ 4294967295U\0"
 823      4E545F46 
 823      41535433 
 823      325F4D41 
 823      585F5F20 
 824 0cf4 01       		.byte	0x1
 825 0cf5 00       		.uleb128 0
 826 0cf6 5F5F5549 		.ascii "__UINT_FAST64_MAX__ 18446744073709551615ULL\0"
 826      4E545F46 
 826      41535436 
 826      345F4D41 
 826      585F5F20 
 827 0d22 01       		.byte	0x1
 828 0d23 00       		.uleb128 0
 829 0d24 5F5F494E 		.ascii "__INTPTR_MAX__ 2147483647\0"
 829      54505452 
 829      5F4D4158 
 829      5F5F2032 
 829      31343734 
 830 0d3e 01       		.byte	0x1
 831 0d3f 00       		.uleb128 0
 832 0d40 5F5F5549 		.ascii "__UINTPTR_MAX__ 4294967295U\0"
 832      4E545054 
 832      525F4D41 
 832      585F5F20 
 832      34323934 
 833 0d5c 01       		.byte	0x1
 834 0d5d 00       		.uleb128 0
 835 0d5e 5F5F4743 		.ascii "__GCC_IEC_559 2\0"
 835      435F4945 
 835      435F3535 
 835      39203200 
 836 0d6e 01       		.byte	0x1
 837 0d6f 00       		.uleb128 0
 838 0d70 5F5F4743 		.ascii "__GCC_IEC_559_COMPLEX 2\0"
 838      435F4945 
 838      435F3535 
 838      395F434F 
 838      4D504C45 
 839 0d88 01       		.byte	0x1
 840 0d89 00       		.uleb128 0
 841 0d8a 5F5F464C 		.ascii "__FLT_EVAL_METHOD__ 2\0"
 841      545F4556 
GAS LISTING c:\tmp\ccNEBtDk.s 			page 28


 841      414C5F4D 
 841      4554484F 
 841      445F5F20 
 842 0da0 01       		.byte	0x1
 843 0da1 00       		.uleb128 0
 844 0da2 5F5F4445 		.ascii "__DEC_EVAL_METHOD__ 2\0"
 844      435F4556 
 844      414C5F4D 
 844      4554484F 
 844      445F5F20 
 845 0db8 01       		.byte	0x1
 846 0db9 00       		.uleb128 0
 847 0dba 5F5F464C 		.ascii "__FLT_RADIX__ 2\0"
 847      545F5241 
 847      4449585F 
 847      5F203200 
 848 0dca 01       		.byte	0x1
 849 0dcb 00       		.uleb128 0
 850 0dcc 5F5F464C 		.ascii "__FLT_MANT_DIG__ 24\0"
 850      545F4D41 
 850      4E545F44 
 850      49475F5F 
 850      20323400 
 851 0de0 01       		.byte	0x1
 852 0de1 00       		.uleb128 0
 853 0de2 5F5F464C 		.ascii "__FLT_DIG__ 6\0"
 853      545F4449 
 853      475F5F20 
 853      3600
 854 0df0 01       		.byte	0x1
 855 0df1 00       		.uleb128 0
 856 0df2 5F5F464C 		.ascii "__FLT_MIN_EXP__ (-125)\0"
 856      545F4D49 
 856      4E5F4558 
 856      505F5F20 
 856      282D3132 
 857 0e09 01       		.byte	0x1
 858 0e0a 00       		.uleb128 0
 859 0e0b 5F5F464C 		.ascii "__FLT_MIN_10_EXP__ (-37)\0"
 859      545F4D49 
 859      4E5F3130 
 859      5F455850 
 859      5F5F2028 
 860 0e24 01       		.byte	0x1
 861 0e25 00       		.uleb128 0
 862 0e26 5F5F464C 		.ascii "__FLT_MAX_EXP__ 128\0"
 862      545F4D41 
 862      585F4558 
 862      505F5F20 
 862      31323800 
 863 0e3a 01       		.byte	0x1
 864 0e3b 00       		.uleb128 0
 865 0e3c 5F5F464C 		.ascii "__FLT_MAX_10_EXP__ 38\0"
 865      545F4D41 
 865      585F3130 
 865      5F455850 
 865      5F5F2033 
GAS LISTING c:\tmp\ccNEBtDk.s 			page 29


 866 0e52 01       		.byte	0x1
 867 0e53 00       		.uleb128 0
 868 0e54 5F5F464C 		.ascii "__FLT_DECIMAL_DIG__ 9\0"
 868      545F4445 
 868      43494D41 
 868      4C5F4449 
 868      475F5F20 
 869 0e6a 01       		.byte	0x1
 870 0e6b 00       		.uleb128 0
 871 0e6c 5F5F464C 		.ascii "__FLT_MAX__ 3.40282346638528859812e+38F\0"
 871      545F4D41 
 871      585F5F20 
 871      332E3430 
 871      32383233 
 872 0e94 01       		.byte	0x1
 873 0e95 00       		.uleb128 0
 874 0e96 5F5F464C 		.ascii "__FLT_MIN__ 1.17549435082228750797e-38F\0"
 874      545F4D49 
 874      4E5F5F20 
 874      312E3137 
 874      35343934 
 875 0ebe 01       		.byte	0x1
 876 0ebf 00       		.uleb128 0
 877 0ec0 5F5F464C 		.ascii "__FLT_EPSILON__ 1.19209289550781250000e-7F\0"
 877      545F4550 
 877      53494C4F 
 877      4E5F5F20 
 877      312E3139 
 878 0eeb 01       		.byte	0x1
 879 0eec 00       		.uleb128 0
 880 0eed 5F5F464C 		.ascii "__FLT_DENORM_MIN__ 1.40129846432481707092e-45F\0"
 880      545F4445 
 880      4E4F524D 
 880      5F4D494E 
 880      5F5F2031 
 881 0f1c 01       		.byte	0x1
 882 0f1d 00       		.uleb128 0
 883 0f1e 5F5F464C 		.ascii "__FLT_HAS_DENORM__ 1\0"
 883      545F4841 
 883      535F4445 
 883      4E4F524D 
 883      5F5F2031 
 884 0f33 01       		.byte	0x1
 885 0f34 00       		.uleb128 0
 886 0f35 5F5F464C 		.ascii "__FLT_HAS_INFINITY__ 1\0"
 886      545F4841 
 886      535F494E 
 886      46494E49 
 886      54595F5F 
 887 0f4c 01       		.byte	0x1
 888 0f4d 00       		.uleb128 0
 889 0f4e 5F5F464C 		.ascii "__FLT_HAS_QUIET_NAN__ 1\0"
 889      545F4841 
 889      535F5155 
 889      4945545F 
 889      4E414E5F 
 890 0f66 01       		.byte	0x1
GAS LISTING c:\tmp\ccNEBtDk.s 			page 30


 891 0f67 00       		.uleb128 0
 892 0f68 5F5F4442 		.ascii "__DBL_MANT_DIG__ 53\0"
 892      4C5F4D41 
 892      4E545F44 
 892      49475F5F 
 892      20353300 
 893 0f7c 01       		.byte	0x1
 894 0f7d 00       		.uleb128 0
 895 0f7e 5F5F4442 		.ascii "__DBL_DIG__ 15\0"
 895      4C5F4449 
 895      475F5F20 
 895      313500
 896 0f8d 01       		.byte	0x1
 897 0f8e 00       		.uleb128 0
 898 0f8f 5F5F4442 		.ascii "__DBL_MIN_EXP__ (-1021)\0"
 898      4C5F4D49 
 898      4E5F4558 
 898      505F5F20 
 898      282D3130 
 899 0fa7 01       		.byte	0x1
 900 0fa8 00       		.uleb128 0
 901 0fa9 5F5F4442 		.ascii "__DBL_MIN_10_EXP__ (-307)\0"
 901      4C5F4D49 
 901      4E5F3130 
 901      5F455850 
 901      5F5F2028 
 902 0fc3 01       		.byte	0x1
 903 0fc4 00       		.uleb128 0
 904 0fc5 5F5F4442 		.ascii "__DBL_MAX_EXP__ 1024\0"
 904      4C5F4D41 
 904      585F4558 
 904      505F5F20 
 904      31303234 
 905 0fda 01       		.byte	0x1
 906 0fdb 00       		.uleb128 0
 907 0fdc 5F5F4442 		.ascii "__DBL_MAX_10_EXP__ 308\0"
 907      4C5F4D41 
 907      585F3130 
 907      5F455850 
 907      5F5F2033 
 908 0ff3 01       		.byte	0x1
 909 0ff4 00       		.uleb128 0
 910 0ff5 5F5F4442 		.ascii "__DBL_DECIMAL_DIG__ 17\0"
 910      4C5F4445 
 910      43494D41 
 910      4C5F4449 
 910      475F5F20 
 911 100c 01       		.byte	0x1
 912 100d 00       		.uleb128 0
 913 100e 5F5F4442 		.ascii "__DBL_MAX__ ((double)1.79769313486231570815e+308L)\0"
 913      4C5F4D41 
 913      585F5F20 
 913      2828646F 
 913      75626C65 
 914 1041 01       		.byte	0x1
 915 1042 00       		.uleb128 0
 916 1043 5F5F4442 		.ascii "__DBL_MIN__ ((double)2.22507385850720138309e-308L)\0"
GAS LISTING c:\tmp\ccNEBtDk.s 			page 31


 916      4C5F4D49 
 916      4E5F5F20 
 916      2828646F 
 916      75626C65 
 917 1076 01       		.byte	0x1
 918 1077 00       		.uleb128 0
 919 1078 5F5F4442 		.ascii "__DBL_EPSILON__ ((double)2.22044604925031308085e-16L)\0"
 919      4C5F4550 
 919      53494C4F 
 919      4E5F5F20 
 919      2828646F 
 920 10ae 01       		.byte	0x1
 921 10af 00       		.uleb128 0
 922 10b0 5F5F4442 		.ascii "__DBL_DENORM_MIN__ ((double)4.94065645841246544177e-324L)\0"
 922      4C5F4445 
 922      4E4F524D 
 922      5F4D494E 
 922      5F5F2028 
 923 10ea 01       		.byte	0x1
 924 10eb 00       		.uleb128 0
 925 10ec 5F5F4442 		.ascii "__DBL_HAS_DENORM__ 1\0"
 925      4C5F4841 
 925      535F4445 
 925      4E4F524D 
 925      5F5F2031 
 926 1101 01       		.byte	0x1
 927 1102 00       		.uleb128 0
 928 1103 5F5F4442 		.ascii "__DBL_HAS_INFINITY__ 1\0"
 928      4C5F4841 
 928      535F494E 
 928      46494E49 
 928      54595F5F 
 929 111a 01       		.byte	0x1
 930 111b 00       		.uleb128 0
 931 111c 5F5F4442 		.ascii "__DBL_HAS_QUIET_NAN__ 1\0"
 931      4C5F4841 
 931      535F5155 
 931      4945545F 
 931      4E414E5F 
 932 1134 01       		.byte	0x1
 933 1135 00       		.uleb128 0
 934 1136 5F5F4C44 		.ascii "__LDBL_MANT_DIG__ 64\0"
 934      424C5F4D 
 934      414E545F 
 934      4449475F 
 934      5F203634 
 935 114b 01       		.byte	0x1
 936 114c 00       		.uleb128 0
 937 114d 5F5F4C44 		.ascii "__LDBL_DIG__ 18\0"
 937      424C5F44 
 937      49475F5F 
 937      20313800 
 938 115d 01       		.byte	0x1
 939 115e 00       		.uleb128 0
 940 115f 5F5F4C44 		.ascii "__LDBL_MIN_EXP__ (-16381)\0"
 940      424C5F4D 
 940      494E5F45 
GAS LISTING c:\tmp\ccNEBtDk.s 			page 32


 940      58505F5F 
 940      20282D31 
 941 1179 01       		.byte	0x1
 942 117a 00       		.uleb128 0
 943 117b 5F5F4C44 		.ascii "__LDBL_MIN_10_EXP__ (-4931)\0"
 943      424C5F4D 
 943      494E5F31 
 943      305F4558 
 943      505F5F20 
 944 1197 01       		.byte	0x1
 945 1198 00       		.uleb128 0
 946 1199 5F5F4C44 		.ascii "__LDBL_MAX_EXP__ 16384\0"
 946      424C5F4D 
 946      41585F45 
 946      58505F5F 
 946      20313633 
 947 11b0 01       		.byte	0x1
 948 11b1 00       		.uleb128 0
 949 11b2 5F5F4C44 		.ascii "__LDBL_MAX_10_EXP__ 4932\0"
 949      424C5F4D 
 949      41585F31 
 949      305F4558 
 949      505F5F20 
 950 11cb 01       		.byte	0x1
 951 11cc 00       		.uleb128 0
 952 11cd 5F5F4445 		.ascii "__DECIMAL_DIG__ 21\0"
 952      43494D41 
 952      4C5F4449 
 952      475F5F20 
 952      323100
 953 11e0 01       		.byte	0x1
 954 11e1 00       		.uleb128 0
 955 11e2 5F5F4C44 		.ascii "__LDBL_MAX__ 1.18973149535723176502e+4932L\0"
 955      424C5F4D 
 955      41585F5F 
 955      20312E31 
 955      38393733 
 956 120d 01       		.byte	0x1
 957 120e 00       		.uleb128 0
 958 120f 5F5F4C44 		.ascii "__LDBL_MIN__ 3.36210314311209350626e-4932L\0"
 958      424C5F4D 
 958      494E5F5F 
 958      20332E33 
 958      36323130 
 959 123a 01       		.byte	0x1
 960 123b 00       		.uleb128 0
 961 123c 5F5F4C44 		.ascii "__LDBL_EPSILON__ 1.08420217248550443401e-19L\0"
 961      424C5F45 
 961      5053494C 
 961      4F4E5F5F 
 961      20312E30 
 962 1269 01       		.byte	0x1
 963 126a 00       		.uleb128 0
 964 126b 5F5F4C44 		.ascii "__LDBL_DENORM_MIN__ 3.64519953188247460253e-4951L\0"
 964      424C5F44 
 964      454E4F52 
 964      4D5F4D49 
GAS LISTING c:\tmp\ccNEBtDk.s 			page 33


 964      4E5F5F20 
 965 129d 01       		.byte	0x1
 966 129e 00       		.uleb128 0
 967 129f 5F5F4C44 		.ascii "__LDBL_HAS_DENORM__ 1\0"
 967      424C5F48 
 967      41535F44 
 967      454E4F52 
 967      4D5F5F20 
 968 12b5 01       		.byte	0x1
 969 12b6 00       		.uleb128 0
 970 12b7 5F5F4C44 		.ascii "__LDBL_HAS_INFINITY__ 1\0"
 970      424C5F48 
 970      41535F49 
 970      4E46494E 
 970      4954595F 
 971 12cf 01       		.byte	0x1
 972 12d0 00       		.uleb128 0
 973 12d1 5F5F4C44 		.ascii "__LDBL_HAS_QUIET_NAN__ 1\0"
 973      424C5F48 
 973      41535F51 
 973      55494554 
 973      5F4E414E 
 974 12ea 01       		.byte	0x1
 975 12eb 00       		.uleb128 0
 976 12ec 5F5F4445 		.ascii "__DEC32_MANT_DIG__ 7\0"
 976      4333325F 
 976      4D414E54 
 976      5F444947 
 976      5F5F2037 
 977 1301 01       		.byte	0x1
 978 1302 00       		.uleb128 0
 979 1303 5F5F4445 		.ascii "__DEC32_MIN_EXP__ (-94)\0"
 979      4333325F 
 979      4D494E5F 
 979      4558505F 
 979      5F20282D 
 980 131b 01       		.byte	0x1
 981 131c 00       		.uleb128 0
 982 131d 5F5F4445 		.ascii "__DEC32_MAX_EXP__ 97\0"
 982      4333325F 
 982      4D41585F 
 982      4558505F 
 982      5F203937 
 983 1332 01       		.byte	0x1
 984 1333 00       		.uleb128 0
 985 1334 5F5F4445 		.ascii "__DEC32_MIN__ 1E-95DF\0"
 985      4333325F 
 985      4D494E5F 
 985      5F203145 
 985      2D393544 
 986 134a 01       		.byte	0x1
 987 134b 00       		.uleb128 0
 988 134c 5F5F4445 		.ascii "__DEC32_MAX__ 9.999999E96DF\0"
 988      4333325F 
 988      4D41585F 
 988      5F20392E 
 988      39393939 
GAS LISTING c:\tmp\ccNEBtDk.s 			page 34


 989 1368 01       		.byte	0x1
 990 1369 00       		.uleb128 0
 991 136a 5F5F4445 		.ascii "__DEC32_EPSILON__ 1E-6DF\0"
 991      4333325F 
 991      45505349 
 991      4C4F4E5F 
 991      5F203145 
 992 1383 01       		.byte	0x1
 993 1384 00       		.uleb128 0
 994 1385 5F5F4445 		.ascii "__DEC32_SUBNORMAL_MIN__ 0.000001E-95DF\0"
 994      4333325F 
 994      5355424E 
 994      4F524D41 
 994      4C5F4D49 
 995 13ac 01       		.byte	0x1
 996 13ad 00       		.uleb128 0
 997 13ae 5F5F4445 		.ascii "__DEC64_MANT_DIG__ 16\0"
 997      4336345F 
 997      4D414E54 
 997      5F444947 
 997      5F5F2031 
 998 13c4 01       		.byte	0x1
 999 13c5 00       		.uleb128 0
 1000 13c6 5F5F4445 		.ascii "__DEC64_MIN_EXP__ (-382)\0"
 1000      4336345F 
 1000      4D494E5F 
 1000      4558505F 
 1000      5F20282D 
 1001 13df 01       		.byte	0x1
 1002 13e0 00       		.uleb128 0
 1003 13e1 5F5F4445 		.ascii "__DEC64_MAX_EXP__ 385\0"
 1003      4336345F 
 1003      4D41585F 
 1003      4558505F 
 1003      5F203338 
 1004 13f7 01       		.byte	0x1
 1005 13f8 00       		.uleb128 0
 1006 13f9 5F5F4445 		.ascii "__DEC64_MIN__ 1E-383DD\0"
 1006      4336345F 
 1006      4D494E5F 
 1006      5F203145 
 1006      2D333833 
 1007 1410 01       		.byte	0x1
 1008 1411 00       		.uleb128 0
 1009 1412 5F5F4445 		.ascii "__DEC64_MAX__ 9.999999999999999E384DD\0"
 1009      4336345F 
 1009      4D41585F 
 1009      5F20392E 
 1009      39393939 
 1010 1438 01       		.byte	0x1
 1011 1439 00       		.uleb128 0
 1012 143a 5F5F4445 		.ascii "__DEC64_EPSILON__ 1E-15DD\0"
 1012      4336345F 
 1012      45505349 
 1012      4C4F4E5F 
 1012      5F203145 
 1013 1454 01       		.byte	0x1
GAS LISTING c:\tmp\ccNEBtDk.s 			page 35


 1014 1455 00       		.uleb128 0
 1015 1456 5F5F4445 		.ascii "__DEC64_SUBNORMAL_MIN__ 0.000000000000001E-383DD\0"
 1015      4336345F 
 1015      5355424E 
 1015      4F524D41 
 1015      4C5F4D49 
 1016 1487 01       		.byte	0x1
 1017 1488 00       		.uleb128 0
 1018 1489 5F5F4445 		.ascii "__DEC128_MANT_DIG__ 34\0"
 1018      43313238 
 1018      5F4D414E 
 1018      545F4449 
 1018      475F5F20 
 1019 14a0 01       		.byte	0x1
 1020 14a1 00       		.uleb128 0
 1021 14a2 5F5F4445 		.ascii "__DEC128_MIN_EXP__ (-6142)\0"
 1021      43313238 
 1021      5F4D494E 
 1021      5F455850 
 1021      5F5F2028 
 1022 14bd 01       		.byte	0x1
 1023 14be 00       		.uleb128 0
 1024 14bf 5F5F4445 		.ascii "__DEC128_MAX_EXP__ 6145\0"
 1024      43313238 
 1024      5F4D4158 
 1024      5F455850 
 1024      5F5F2036 
 1025 14d7 01       		.byte	0x1
 1026 14d8 00       		.uleb128 0
 1027 14d9 5F5F4445 		.ascii "__DEC128_MIN__ 1E-6143DL\0"
 1027      43313238 
 1027      5F4D494E 
 1027      5F5F2031 
 1027      452D3631 
 1028 14f2 01       		.byte	0x1
 1029 14f3 00       		.uleb128 0
 1030 14f4 5F5F4445 		.ascii "__DEC128_MAX__ 9.999999999999999999999999999999999E6144DL\0"
 1030      43313238 
 1030      5F4D4158 
 1030      5F5F2039 
 1030      2E393939 
 1031 152e 01       		.byte	0x1
 1032 152f 00       		.uleb128 0
 1033 1530 5F5F4445 		.ascii "__DEC128_EPSILON__ 1E-33DL\0"
 1033      43313238 
 1033      5F455053 
 1033      494C4F4E 
 1033      5F5F2031 
 1034 154b 01       		.byte	0x1
 1035 154c 00       		.uleb128 0
 1036 154d 5F5F4445 		.ascii "__DEC128_SUBNORMAL_MIN__ 0.000000000000000000000000000000001E-6143DL\0"
 1036      43313238 
 1036      5F535542 
 1036      4E4F524D 
 1036      414C5F4D 
 1037 1592 01       		.byte	0x1
 1038 1593 00       		.uleb128 0
GAS LISTING c:\tmp\ccNEBtDk.s 			page 36


 1039 1594 5F5F5245 		.ascii "__REGISTER_PREFIX__ \0"
 1039      47495354 
 1039      45525F50 
 1039      52454649 
 1039      585F5F20 
 1040 15a9 01       		.byte	0x1
 1041 15aa 00       		.uleb128 0
 1042 15ab 5F5F5553 		.ascii "__USER_LABEL_PREFIX__ _\0"
 1042      45525F4C 
 1042      4142454C 
 1042      5F505245 
 1042      4649585F 
 1043 15c3 01       		.byte	0x1
 1044 15c4 00       		.uleb128 0
 1045 15c5 5F5F474E 		.ascii "__GNUC_GNU_INLINE__ 1\0"
 1045      55435F47 
 1045      4E555F49 
 1045      4E4C494E 
 1045      455F5F20 
 1046 15db 01       		.byte	0x1
 1047 15dc 00       		.uleb128 0
 1048 15dd 5F5F4E4F 		.ascii "__NO_INLINE__ 1\0"
 1048      5F494E4C 
 1048      494E455F 
 1048      5F203100 
 1049 15ed 01       		.byte	0x1
 1050 15ee 00       		.uleb128 0
 1051 15ef 5F5F4743 		.ascii "__GCC_HAVE_SYNC_COMPARE_AND_SWAP_1 1\0"
 1051      435F4841 
 1051      56455F53 
 1051      594E435F 
 1051      434F4D50 
 1052 1614 01       		.byte	0x1
 1053 1615 00       		.uleb128 0
 1054 1616 5F5F4743 		.ascii "__GCC_HAVE_SYNC_COMPARE_AND_SWAP_2 1\0"
 1054      435F4841 
 1054      56455F53 
 1054      594E435F 
 1054      434F4D50 
 1055 163b 01       		.byte	0x1
 1056 163c 00       		.uleb128 0
 1057 163d 5F5F4743 		.ascii "__GCC_HAVE_SYNC_COMPARE_AND_SWAP_4 1\0"
 1057      435F4841 
 1057      56455F53 
 1057      594E435F 
 1057      434F4D50 
 1058 1662 01       		.byte	0x1
 1059 1663 00       		.uleb128 0
 1060 1664 5F5F4743 		.ascii "__GCC_HAVE_SYNC_COMPARE_AND_SWAP_8 1\0"
 1060      435F4841 
 1060      56455F53 
 1060      594E435F 
 1060      434F4D50 
 1061 1689 01       		.byte	0x1
 1062 168a 00       		.uleb128 0
 1063 168b 5F5F4743 		.ascii "__GCC_ATOMIC_BOOL_LOCK_FREE 2\0"
 1063      435F4154 
GAS LISTING c:\tmp\ccNEBtDk.s 			page 37


 1063      4F4D4943 
 1063      5F424F4F 
 1063      4C5F4C4F 
 1064 16a9 01       		.byte	0x1
 1065 16aa 00       		.uleb128 0
 1066 16ab 5F5F4743 		.ascii "__GCC_ATOMIC_CHAR_LOCK_FREE 2\0"
 1066      435F4154 
 1066      4F4D4943 
 1066      5F434841 
 1066      525F4C4F 
 1067 16c9 01       		.byte	0x1
 1068 16ca 00       		.uleb128 0
 1069 16cb 5F5F4743 		.ascii "__GCC_ATOMIC_CHAR16_T_LOCK_FREE 2\0"
 1069      435F4154 
 1069      4F4D4943 
 1069      5F434841 
 1069      5231365F 
 1070 16ed 01       		.byte	0x1
 1071 16ee 00       		.uleb128 0
 1072 16ef 5F5F4743 		.ascii "__GCC_ATOMIC_CHAR32_T_LOCK_FREE 2\0"
 1072      435F4154 
 1072      4F4D4943 
 1072      5F434841 
 1072      5233325F 
 1073 1711 01       		.byte	0x1
 1074 1712 00       		.uleb128 0
 1075 1713 5F5F4743 		.ascii "__GCC_ATOMIC_WCHAR_T_LOCK_FREE 2\0"
 1075      435F4154 
 1075      4F4D4943 
 1075      5F574348 
 1075      41525F54 
 1076 1734 01       		.byte	0x1
 1077 1735 00       		.uleb128 0
 1078 1736 5F5F4743 		.ascii "__GCC_ATOMIC_SHORT_LOCK_FREE 2\0"
 1078      435F4154 
 1078      4F4D4943 
 1078      5F53484F 
 1078      52545F4C 
 1079 1755 01       		.byte	0x1
 1080 1756 00       		.uleb128 0
 1081 1757 5F5F4743 		.ascii "__GCC_ATOMIC_INT_LOCK_FREE 2\0"
 1081      435F4154 
 1081      4F4D4943 
 1081      5F494E54 
 1081      5F4C4F43 
 1082 1774 01       		.byte	0x1
 1083 1775 00       		.uleb128 0
 1084 1776 5F5F4743 		.ascii "__GCC_ATOMIC_LONG_LOCK_FREE 2\0"
 1084      435F4154 
 1084      4F4D4943 
 1084      5F4C4F4E 
 1084      475F4C4F 
 1085 1794 01       		.byte	0x1
 1086 1795 00       		.uleb128 0
 1087 1796 5F5F4743 		.ascii "__GCC_ATOMIC_LLONG_LOCK_FREE 2\0"
 1087      435F4154 
 1087      4F4D4943 
GAS LISTING c:\tmp\ccNEBtDk.s 			page 38


 1087      5F4C4C4F 
 1087      4E475F4C 
 1088 17b5 01       		.byte	0x1
 1089 17b6 00       		.uleb128 0
 1090 17b7 5F5F4743 		.ascii "__GCC_ATOMIC_TEST_AND_SET_TRUEVAL 1\0"
 1090      435F4154 
 1090      4F4D4943 
 1090      5F544553 
 1090      545F414E 
 1091 17db 01       		.byte	0x1
 1092 17dc 00       		.uleb128 0
 1093 17dd 5F5F4743 		.ascii "__GCC_ATOMIC_POINTER_LOCK_FREE 2\0"
 1093      435F4154 
 1093      4F4D4943 
 1093      5F504F49 
 1093      4E544552 
 1094 17fe 01       		.byte	0x1
 1095 17ff 00       		.uleb128 0
 1096 1800 5F5F4743 		.ascii "__GCC_HAVE_DWARF2_CFI_ASM 1\0"
 1096      435F4841 
 1096      56455F44 
 1096      57415246 
 1096      325F4346 
 1097 181c 01       		.byte	0x1
 1098 181d 00       		.uleb128 0
 1099 181e 5F5F5052 		.ascii "__PRAGMA_REDEFINE_EXTNAME 1\0"
 1099      41474D41 
 1099      5F524544 
 1099      4546494E 
 1099      455F4558 
 1100 183a 01       		.byte	0x1
 1101 183b 00       		.uleb128 0
 1102 183c 5F5F5349 		.ascii "__SIZEOF_WCHAR_T__ 2\0"
 1102      5A454F46 
 1102      5F574348 
 1102      41525F54 
 1102      5F5F2032 
 1103 1851 01       		.byte	0x1
 1104 1852 00       		.uleb128 0
 1105 1853 5F5F5349 		.ascii "__SIZEOF_WINT_T__ 2\0"
 1105      5A454F46 
 1105      5F57494E 
 1105      545F545F 
 1105      5F203200 
 1106 1867 01       		.byte	0x1
 1107 1868 00       		.uleb128 0
 1108 1869 5F5F5349 		.ascii "__SIZEOF_PTRDIFF_T__ 4\0"
 1108      5A454F46 
 1108      5F505452 
 1108      44494646 
 1108      5F545F5F 
 1109 1880 01       		.byte	0x1
 1110 1881 00       		.uleb128 0
 1111 1882 5F5F6933 		.ascii "__i386 1\0"
 1111      38362031 
 1111      00
 1112 188b 01       		.byte	0x1
GAS LISTING c:\tmp\ccNEBtDk.s 			page 39


 1113 188c 00       		.uleb128 0
 1114 188d 5F5F6933 		.ascii "__i386__ 1\0"
 1114      38365F5F 
 1114      203100
 1115 1898 01       		.byte	0x1
 1116 1899 00       		.uleb128 0
 1117 189a 69333836 		.ascii "i386 1\0"
 1117      203100
 1118 18a1 01       		.byte	0x1
 1119 18a2 00       		.uleb128 0
 1120 18a3 5F5F4154 		.ascii "__ATOMIC_HLE_ACQUIRE 65536\0"
 1120      4F4D4943 
 1120      5F484C45 
 1120      5F414351 
 1120      55495245 
 1121 18be 01       		.byte	0x1
 1122 18bf 00       		.uleb128 0
 1123 18c0 5F5F4154 		.ascii "__ATOMIC_HLE_RELEASE 131072\0"
 1123      4F4D4943 
 1123      5F484C45 
 1123      5F52454C 
 1123      45415345 
 1124 18dc 01       		.byte	0x1
 1125 18dd 00       		.uleb128 0
 1126 18de 5F5F6936 		.ascii "__i686 1\0"
 1126      38362031 
 1126      00
 1127 18e7 01       		.byte	0x1
 1128 18e8 00       		.uleb128 0
 1129 18e9 5F5F6936 		.ascii "__i686__ 1\0"
 1129      38365F5F 
 1129      203100
 1130 18f4 01       		.byte	0x1
 1131 18f5 00       		.uleb128 0
 1132 18f6 5F5F7065 		.ascii "__pentiumpro 1\0"
 1132      6E746975 
 1132      6D70726F 
 1132      203100
 1133 1905 01       		.byte	0x1
 1134 1906 00       		.uleb128 0
 1135 1907 5F5F7065 		.ascii "__pentiumpro__ 1\0"
 1135      6E746975 
 1135      6D70726F 
 1135      5F5F2031 
 1135      00
 1136 1918 01       		.byte	0x1
 1137 1919 00       		.uleb128 0
 1138 191a 5F5F636F 		.ascii "__code_model_32__ 1\0"
 1138      64655F6D 
 1138      6F64656C 
 1138      5F33325F 
 1138      5F203100 
 1139 192e 01       		.byte	0x1
 1140 192f 00       		.uleb128 0
 1141 1930 5F5F4D4D 		.ascii "__MMX__ 1\0"
 1141      585F5F20 
 1141      3100
GAS LISTING c:\tmp\ccNEBtDk.s 			page 40


 1142 193a 01       		.byte	0x1
 1143 193b 00       		.uleb128 0
 1144 193c 5F5F5353 		.ascii "__SSE__ 1\0"
 1144      455F5F20 
 1144      3100
 1145 1946 01       		.byte	0x1
 1146 1947 00       		.uleb128 0
 1147 1948 5F5F5353 		.ascii "__SSE2__ 1\0"
 1147      45325F5F 
 1147      203100
 1148 1953 01       		.byte	0x1
 1149 1954 00       		.uleb128 0
 1150 1955 5F5F5353 		.ascii "__SSE3__ 1\0"
 1150      45335F5F 
 1150      203100
 1151 1960 01       		.byte	0x1
 1152 1961 00       		.uleb128 0
 1153 1962 5F5F5353 		.ascii "__SSSE3__ 1\0"
 1153      5345335F 
 1153      5F203100 
 1154 196e 01       		.byte	0x1
 1155 196f 00       		.uleb128 0
 1156 1970 5F5F5353 		.ascii "__SSE4_1__ 1\0"
 1156      45345F31 
 1156      5F5F2031 
 1156      00
 1157 197d 01       		.byte	0x1
 1158 197e 00       		.uleb128 0
 1159 197f 5F5F5353 		.ascii "__SSE4_2__ 1\0"
 1159      45345F32 
 1159      5F5F2031 
 1159      00
 1160 198c 01       		.byte	0x1
 1161 198d 00       		.uleb128 0
 1162 198e 5F5F4156 		.ascii "__AVX__ 1\0"
 1162      585F5F20 
 1162      3100
 1163 1998 01       		.byte	0x1
 1164 1999 00       		.uleb128 0
 1165 199a 5F5F504F 		.ascii "__POPCNT__ 1\0"
 1165      50434E54 
 1165      5F5F2031 
 1165      00
 1166 19a7 01       		.byte	0x1
 1167 19a8 00       		.uleb128 0
 1168 19a9 5F5F5853 		.ascii "__XSAVE__ 1\0"
 1168      4156455F 
 1168      5F203100 
 1169 19b5 01       		.byte	0x1
 1170 19b6 00       		.uleb128 0
 1171 19b7 5F583836 		.ascii "_X86_ 1\0"
 1171      5F203100 
 1172 19bf 01       		.byte	0x1
 1173 19c0 00       		.uleb128 0
 1174 19c1 5F5F7374 		.ascii "__stdcall __attribute__((__stdcall__))\0"
 1174      6463616C 
 1174      6C205F5F 
GAS LISTING c:\tmp\ccNEBtDk.s 			page 41


 1174      61747472 
 1174      69627574 
 1175 19e8 01       		.byte	0x1
 1176 19e9 00       		.uleb128 0
 1177 19ea 5F5F6661 		.ascii "__fastcall __attribute__((__fastcall__))\0"
 1177      73746361 
 1177      6C6C205F 
 1177      5F617474 
 1177      72696275 
 1178 1a13 01       		.byte	0x1
 1179 1a14 00       		.uleb128 0
 1180 1a15 5F5F7468 		.ascii "__thiscall __attribute__((__thiscall__))\0"
 1180      69736361 
 1180      6C6C205F 
 1180      5F617474 
 1180      72696275 
 1181 1a3e 01       		.byte	0x1
 1182 1a3f 00       		.uleb128 0
 1183 1a40 5F5F6364 		.ascii "__cdecl __attribute__((__cdecl__))\0"
 1183      65636C20 
 1183      5F5F6174 
 1183      74726962 
 1183      7574655F 
 1184 1a63 01       		.byte	0x1
 1185 1a64 00       		.uleb128 0
 1186 1a65 5F737464 		.ascii "_stdcall __attribute__((__stdcall__))\0"
 1186      63616C6C 
 1186      205F5F61 
 1186      74747269 
 1186      62757465 
 1187 1a8b 01       		.byte	0x1
 1188 1a8c 00       		.uleb128 0
 1189 1a8d 5F666173 		.ascii "_fastcall __attribute__((__fastcall__))\0"
 1189      7463616C 
 1189      6C205F5F 
 1189      61747472 
 1189      69627574 
 1190 1ab5 01       		.byte	0x1
 1191 1ab6 00       		.uleb128 0
 1192 1ab7 5F746869 		.ascii "_thiscall __attribute__((__thiscall__))\0"
 1192      7363616C 
 1192      6C205F5F 
 1192      61747472 
 1192      69627574 
 1193 1adf 01       		.byte	0x1
 1194 1ae0 00       		.uleb128 0
 1195 1ae1 5F636465 		.ascii "_cdecl __attribute__((__cdecl__))\0"
 1195      636C205F 
 1195      5F617474 
 1195      72696275 
 1195      74655F5F 
 1196 1b03 01       		.byte	0x1
 1197 1b04 00       		.uleb128 0
 1198 1b05 5F5F4758 		.ascii "__GXX_MERGED_TYPEINFO_NAMES 0\0"
 1198      585F4D45 
 1198      52474544 
 1198      5F545950 
GAS LISTING c:\tmp\ccNEBtDk.s 			page 42


 1198      45494E46 
 1199 1b23 01       		.byte	0x1
 1200 1b24 00       		.uleb128 0
 1201 1b25 5F5F4758 		.ascii "__GXX_TYPEINFO_EQUALITY_INLINE 0\0"
 1201      585F5459 
 1201      5045494E 
 1201      464F5F45 
 1201      5155414C 
 1202 1b46 01       		.byte	0x1
 1203 1b47 00       		.uleb128 0
 1204 1b48 5F5F4D53 		.ascii "__MSVCRT__ 1\0"
 1204      56435254 
 1204      5F5F2031 
 1204      00
 1205 1b55 01       		.byte	0x1
 1206 1b56 00       		.uleb128 0
 1207 1b57 5F5F4D49 		.ascii "__MINGW32__ 1\0"
 1207      4E475733 
 1207      325F5F20 
 1207      3100
 1208 1b65 01       		.byte	0x1
 1209 1b66 00       		.uleb128 0
 1210 1b67 5F57494E 		.ascii "_WIN32 1\0"
 1210      33322031 
 1210      00
 1211 1b70 01       		.byte	0x1
 1212 1b71 00       		.uleb128 0
 1213 1b72 5F5F5749 		.ascii "__WIN32 1\0"
 1213      4E333220 
 1213      3100
 1214 1b7c 01       		.byte	0x1
 1215 1b7d 00       		.uleb128 0
 1216 1b7e 5F5F5749 		.ascii "__WIN32__ 1\0"
 1216      4E33325F 
 1216      5F203100 
 1217 1b8a 01       		.byte	0x1
 1218 1b8b 00       		.uleb128 0
 1219 1b8c 57494E33 		.ascii "WIN32 1\0"
 1219      32203100 
 1220 1b94 01       		.byte	0x1
 1221 1b95 00       		.uleb128 0
 1222 1b96 5F5F5749 		.ascii "__WINNT 1\0"
 1222      4E4E5420 
 1222      3100
 1223 1ba0 01       		.byte	0x1
 1224 1ba1 00       		.uleb128 0
 1225 1ba2 5F5F5749 		.ascii "__WINNT__ 1\0"
 1225      4E4E545F 
 1225      5F203100 
 1226 1bae 01       		.byte	0x1
 1227 1baf 00       		.uleb128 0
 1228 1bb0 57494E4E 		.ascii "WINNT 1\0"
 1228      54203100 
 1229 1bb8 01       		.byte	0x1
 1230 1bb9 00       		.uleb128 0
 1231 1bba 5F494E54 		.ascii "_INTEGRAL_MAX_BITS 64\0"
 1231      45475241 
GAS LISTING c:\tmp\ccNEBtDk.s 			page 43


 1231      4C5F4D41 
 1231      585F4249 
 1231      54532036 
 1232 1bd0 01       		.byte	0x1
 1233 1bd1 00       		.uleb128 0
 1234 1bd2 5F5F6465 		.ascii "__declspec(x) __attribute__((x))\0"
 1234      636C7370 
 1234      65632878 
 1234      29205F5F 
 1234      61747472 
 1235 1bf3 01       		.byte	0x1
 1236 1bf4 00       		.uleb128 0
 1237 1bf5 5F5F4445 		.ascii "__DECIMAL_BID_FORMAT__ 1\0"
 1237      43494D41 
 1237      4C5F4249 
 1237      445F464F 
 1237      524D4154 
 1238 1c0e 02       		.byte	0x2
 1239 1c0f 00       		.uleb128 0
 1240 1c10 5F524545 		.ascii "_REENTRANT\0"
 1240      4E545241 
 1240      4E5400
 1241 1c1b 01       		.byte	0x1
 1242 1c1c 00       		.uleb128 0
 1243 1c1d 44454255 		.ascii "DEBUG 1\0"
 1243      47203100 
 1244 1c25 03       		.byte	0x3
 1245 1c26 00       		.uleb128 0
 1246 1c27 01       		.uleb128 0x1
 1247              		.file 2 "c:/programfiles/octave/octave-4.0.3/include/stdlib.h"
 1248 1c28 03       		.byte	0x3
 1249 1c29 1E       		.uleb128 0x1e
 1250 1c2a 02       		.uleb128 0x2
 1251 1c2b 01       		.byte	0x1
 1252 1c2c 07       		.uleb128 0x7
 1253 1c2d 5F494E43 		.ascii "_INC_STDLIB \0"
 1253      5F535444 
 1253      4C494220 
 1253      00
 1254              		.file 3 "c:/programfiles/octave/octave-4.0.3/include/crtdefs.h"
 1255 1c3a 03       		.byte	0x3
 1256 1c3b 09       		.uleb128 0x9
 1257 1c3c 03       		.uleb128 0x3
 1258 1c3d 01       		.byte	0x1
 1259 1c3e 08       		.uleb128 0x8
 1260 1c3f 5F494E43 		.ascii "_INC_CRTDEFS \0"
 1260      5F435254 
 1260      44454653 
 1260      2000
 1261              		.file 4 "c:/programfiles/octave/octave-4.0.3/include/_mingw.h"
 1262 1c4d 03       		.byte	0x3
 1263 1c4e 0A       		.uleb128 0xa
 1264 1c4f 04       		.uleb128 0x4
 1265 1c50 01       		.byte	0x1
 1266 1c51 08       		.uleb128 0x8
 1267 1c52 5F494E43 		.ascii "_INC__MINGW_H \0"
 1267      5F5F4D49 
GAS LISTING c:\tmp\ccNEBtDk.s 			page 44


 1267      4E47575F 
 1267      482000
 1268              		.file 5 "c:/programfiles/octave/octave-4.0.3/include/_mingw_mac.h"
 1269 1c61 03       		.byte	0x3
 1270 1c62 0C       		.uleb128 0xc
 1271 1c63 05       		.uleb128 0x5
 1272 1c64 01       		.byte	0x1
 1273 1c65 08       		.uleb128 0x8
 1274 1c66 5F494E43 		.ascii "_INC_CRTDEFS_MACRO \0"
 1274      5F435254 
 1274      44454653 
 1274      5F4D4143 
 1274      524F2000 
 1275 1c7a 01       		.byte	0x1
 1276 1c7b 0A       		.uleb128 0xa
 1277 1c7c 5F5F5354 		.ascii "__STRINGIFY(x) #x\0"
 1277      52494E47 
 1277      49465928 
 1277      78292023 
 1277      7800
 1278 1c8e 01       		.byte	0x1
 1279 1c8f 0B       		.uleb128 0xb
 1280 1c90 5F5F4D49 		.ascii "__MINGW64_STRINGIFY(x) __STRINGIFY(x)\0"
 1280      4E475736 
 1280      345F5354 
 1280      52494E47 
 1280      49465928 
 1281 1cb6 01       		.byte	0x1
 1282 1cb7 0E       		.uleb128 0xe
 1283 1cb8 5F5F4D49 		.ascii "__MINGW64_VERSION_MAJOR 3\0"
 1283      4E475736 
 1283      345F5645 
 1283      5253494F 
 1283      4E5F4D41 
 1284 1cd2 01       		.byte	0x1
 1285 1cd3 0F       		.uleb128 0xf
 1286 1cd4 5F5F4D49 		.ascii "__MINGW64_VERSION_MINOR 3\0"
 1286      4E475736 
 1286      345F5645 
 1286      5253494F 
 1286      4E5F4D49 
 1287 1cee 01       		.byte	0x1
 1288 1cef 17       		.uleb128 0x17
 1289 1cf0 5F5F4D49 		.ascii "__MINGW64_VERSION_RC 0\0"
 1289      4E475736 
 1289      345F5645 
 1289      5253494F 
 1289      4E5F5243 
 1290 1d07 01       		.byte	0x1
 1291 1d08 19       		.uleb128 0x19
 1292 1d09 5F5F4D49 		.ascii "__MINGW64_VERSION_STR __MINGW64_STRINGIFY(__MINGW64_VERSION_MAJOR) \".\" __MINGW64_STRINGI
 1292      4E475736 
 1292      345F5645 
 1292      5253494F 
 1292      4E5F5354 
 1293 1d7d 01       		.byte	0x1
 1294 1d7e 1E       		.uleb128 0x1e
GAS LISTING c:\tmp\ccNEBtDk.s 			page 45


 1295 1d7f 5F5F4D49 		.ascii "__MINGW64_VERSION_STATE \"stable\"\0"
 1295      4E475736 
 1295      345F5645 
 1295      5253494F 
 1295      4E5F5354 
 1296 1da0 01       		.byte	0x1
 1297 1da1 24       		.uleb128 0x24
 1298 1da2 5F5F4D49 		.ascii "__MINGW32_MAJOR_VERSION 3\0"
 1298      4E475733 
 1298      325F4D41 
 1298      4A4F525F 
 1298      56455253 
 1299 1dbc 01       		.byte	0x1
 1300 1dbd 25       		.uleb128 0x25
 1301 1dbe 5F5F4D49 		.ascii "__MINGW32_MINOR_VERSION 11\0"
 1301      4E475733 
 1301      325F4D49 
 1301      4E4F525F 
 1301      56455253 
 1302 1dd9 02       		.byte	0x2
 1303 1dda 3E       		.uleb128 0x3e
 1304 1ddb 5F5F4D49 		.ascii "__MINGW_USE_UNDERSCORE_PREFIX\0"
 1304      4E47575F 
 1304      5553455F 
 1304      554E4445 
 1304      5253434F 
 1305 1df9 01       		.byte	0x1
 1306 1dfa 3F       		.uleb128 0x3f
 1307 1dfb 5F5F4D49 		.ascii "__MINGW_USE_UNDERSCORE_PREFIX 1\0"
 1307      4E47575F 
 1307      5553455F 
 1307      554E4445 
 1307      5253434F 
 1308 1e1b 01       		.byte	0x1
 1309 1e1c 48       		.uleb128 0x48
 1310 1e1d 5F5F4D49 		.ascii "__MINGW_IMP_SYMBOL(sym) _imp__ ##sym\0"
 1310      4E47575F 
 1310      494D505F 
 1310      53594D42 
 1310      4F4C2873 
 1311 1e42 01       		.byte	0x1
 1312 1e43 49       		.uleb128 0x49
 1313 1e44 5F5F4D49 		.ascii "__MINGW_IMP_LSYMBOL(sym) __imp__ ##sym\0"
 1313      4E47575F 
 1313      494D505F 
 1313      4C53594D 
 1313      424F4C28 
 1314 1e6b 01       		.byte	0x1
 1315 1e6c 4A       		.uleb128 0x4a
 1316 1e6d 5F5F4D49 		.ascii "__MINGW_USYMBOL(sym) _ ##sym\0"
 1316      4E47575F 
 1316      5553594D 
 1316      424F4C28 
 1316      73796D29 
 1317 1e8a 01       		.byte	0x1
 1318 1e8b 4B       		.uleb128 0x4b
 1319 1e8c 5F5F4D49 		.ascii "__MINGW_LSYMBOL(sym) sym\0"
GAS LISTING c:\tmp\ccNEBtDk.s 			page 46


 1319      4E47575F 
 1319      4C53594D 
 1319      424F4C28 
 1319      73796D29 
 1320 1ea5 01       		.byte	0x1
 1321 1ea6 5C       		.uleb128 0x5c
 1322 1ea7 5F4D5F49 		.ascii "_M_IX86 600\0"
 1322      58383620 
 1322      36303000 
 1323 1eb3 02       		.byte	0x2
 1324 1eb4 8A01     		.uleb128 0x8a
 1325 1eb6 5F5F4D49 		.ascii "__MINGW_EXTENSION\0"
 1325      4E47575F 
 1325      45585445 
 1325      4E53494F 
 1325      4E00
 1326 1ec8 01       		.byte	0x1
 1327 1ec9 9001     		.uleb128 0x90
 1328 1ecb 5F5F4D49 		.ascii "__MINGW_EXTENSION __extension__\0"
 1328      4E47575F 
 1328      45585445 
 1328      4E53494F 
 1328      4E205F5F 
 1329 1eeb 01       		.byte	0x1
 1330 1eec 9801     		.uleb128 0x98
 1331 1eee 5F5F4338 		.ascii "__C89_NAMELESS __MINGW_EXTENSION\0"
 1331      395F4E41 
 1331      4D454C45 
 1331      5353205F 
 1331      5F4D494E 
 1332 1f0f 01       		.byte	0x1
 1333 1f10 9901     		.uleb128 0x99
 1334 1f12 5F5F4338 		.ascii "__C89_NAMELESSSTRUCTNAME \0"
 1334      395F4E41 
 1334      4D454C45 
 1334      53535354 
 1334      52554354 
 1335 1f2c 01       		.byte	0x1
 1336 1f2d 9A01     		.uleb128 0x9a
 1337 1f2f 5F5F4338 		.ascii "__C89_NAMELESSSTRUCTNAME1 \0"
 1337      395F4E41 
 1337      4D454C45 
 1337      53535354 
 1337      52554354 
 1338 1f4a 01       		.byte	0x1
 1339 1f4b 9B01     		.uleb128 0x9b
 1340 1f4d 5F5F4338 		.ascii "__C89_NAMELESSSTRUCTNAME2 \0"
 1340      395F4E41 
 1340      4D454C45 
 1340      53535354 
 1340      52554354 
 1341 1f68 01       		.byte	0x1
 1342 1f69 9C01     		.uleb128 0x9c
 1343 1f6b 5F5F4338 		.ascii "__C89_NAMELESSSTRUCTNAME3 \0"
 1343      395F4E41 
 1343      4D454C45 
 1343      53535354 
GAS LISTING c:\tmp\ccNEBtDk.s 			page 47


 1343      52554354 
 1344 1f86 01       		.byte	0x1
 1345 1f87 9D01     		.uleb128 0x9d
 1346 1f89 5F5F4338 		.ascii "__C89_NAMELESSSTRUCTNAME4 \0"
 1346      395F4E41 
 1346      4D454C45 
 1346      53535354 
 1346      52554354 
 1347 1fa4 01       		.byte	0x1
 1348 1fa5 9E01     		.uleb128 0x9e
 1349 1fa7 5F5F4338 		.ascii "__C89_NAMELESSSTRUCTNAME5 \0"
 1349      395F4E41 
 1349      4D454C45 
 1349      53535354 
 1349      52554354 
 1350 1fc2 01       		.byte	0x1
 1351 1fc3 9F01     		.uleb128 0x9f
 1352 1fc5 5F5F4338 		.ascii "__C89_NAMELESSUNIONNAME \0"
 1352      395F4E41 
 1352      4D454C45 
 1352      5353554E 
 1352      494F4E4E 
 1353 1fde 01       		.byte	0x1
 1354 1fdf A001     		.uleb128 0xa0
 1355 1fe1 5F5F4338 		.ascii "__C89_NAMELESSUNIONNAME1 \0"
 1355      395F4E41 
 1355      4D454C45 
 1355      5353554E 
 1355      494F4E4E 
 1356 1ffb 01       		.byte	0x1
 1357 1ffc A101     		.uleb128 0xa1
 1358 1ffe 5F5F4338 		.ascii "__C89_NAMELESSUNIONNAME2 \0"
 1358      395F4E41 
 1358      4D454C45 
 1358      5353554E 
 1358      494F4E4E 
 1359 2018 01       		.byte	0x1
 1360 2019 A201     		.uleb128 0xa2
 1361 201b 5F5F4338 		.ascii "__C89_NAMELESSUNIONNAME3 \0"
 1361      395F4E41 
 1361      4D454C45 
 1361      5353554E 
 1361      494F4E4E 
 1362 2035 01       		.byte	0x1
 1363 2036 A301     		.uleb128 0xa3
 1364 2038 5F5F4338 		.ascii "__C89_NAMELESSUNIONNAME4 \0"
 1364      395F4E41 
 1364      4D454C45 
 1364      5353554E 
 1364      494F4E4E 
 1365 2052 01       		.byte	0x1
 1366 2053 A401     		.uleb128 0xa4
 1367 2055 5F5F4338 		.ascii "__C89_NAMELESSUNIONNAME5 \0"
 1367      395F4E41 
 1367      4D454C45 
 1367      5353554E 
 1367      494F4E4E 
GAS LISTING c:\tmp\ccNEBtDk.s 			page 48


 1368 206f 01       		.byte	0x1
 1369 2070 A501     		.uleb128 0xa5
 1370 2072 5F5F4338 		.ascii "__C89_NAMELESSUNIONNAME6 \0"
 1370      395F4E41 
 1370      4D454C45 
 1370      5353554E 
 1370      494F4E4E 
 1371 208c 01       		.byte	0x1
 1372 208d A601     		.uleb128 0xa6
 1373 208f 5F5F4338 		.ascii "__C89_NAMELESSUNIONNAME7 \0"
 1373      395F4E41 
 1373      4D454C45 
 1373      5353554E 
 1373      494F4E4E 
 1374 20a9 01       		.byte	0x1
 1375 20aa A701     		.uleb128 0xa7
 1376 20ac 5F5F4338 		.ascii "__C89_NAMELESSUNIONNAME8 \0"
 1376      395F4E41 
 1376      4D454C45 
 1376      5353554E 
 1376      494F4E4E 
 1377 20c6 01       		.byte	0x1
 1378 20c7 AB01     		.uleb128 0xab
 1379 20c9 5F5F474E 		.ascii "__GNU_EXTENSION __MINGW_EXTENSION\0"
 1379      555F4558 
 1379      54454E53 
 1379      494F4E20 
 1379      5F5F4D49 
 1380 20eb 01       		.byte	0x1
 1381 20ec B001     		.uleb128 0xb0
 1382 20ee 5F5F4D49 		.ascii "__MINGW_HAVE_ANSI_C99_PRINTF 1\0"
 1382      4E47575F 
 1382      48415645 
 1382      5F414E53 
 1382      495F4339 
 1383 210d 01       		.byte	0x1
 1384 210e B101     		.uleb128 0xb1
 1385 2110 5F5F4D49 		.ascii "__MINGW_HAVE_WIDE_C99_PRINTF 1\0"
 1385      4E47575F 
 1385      48415645 
 1385      5F574944 
 1385      455F4339 
 1386 212f 01       		.byte	0x1
 1387 2130 B201     		.uleb128 0xb2
 1388 2132 5F5F4D49 		.ascii "__MINGW_HAVE_ANSI_C99_SCANF 1\0"
 1388      4E47575F 
 1388      48415645 
 1388      5F414E53 
 1388      495F4339 
 1389 2150 01       		.byte	0x1
 1390 2151 B301     		.uleb128 0xb3
 1391 2153 5F5F4D49 		.ascii "__MINGW_HAVE_WIDE_C99_SCANF 1\0"
 1391      4E47575F 
 1391      48415645 
 1391      5F574944 
 1391      455F4339 
 1392 2171 01       		.byte	0x1
GAS LISTING c:\tmp\ccNEBtDk.s 			page 49


 1393 2172 B801     		.uleb128 0xb8
 1394 2174 5F5F4D49 		.ascii "__MINGW_POISON_NAME(__IFACE) __IFACE ##_layout_has_not_been_verified_and_its_declaration_i
 1394      4E47575F 
 1394      504F4953 
 1394      4F4E5F4E 
 1394      414D4528 
 1395 21e6 01       		.byte	0x1
 1396 21e7 BE01     		.uleb128 0xbe
 1397 21e9 5F5F4D53 		.ascii "__MSABI_LONG(x) x ## l\0"
 1397      4142495F 
 1397      4C4F4E47 
 1397      28782920 
 1397      78202323 
 1398 2200 01       		.byte	0x1
 1399 2201 C501     		.uleb128 0xc5
 1400 2203 5F5F4D49 		.ascii "__MINGW_GCC_VERSION (__GNUC__ * 10000 + __GNUC_MINOR__ * 100 + __GNUC_PATCHLEVEL__)\0"
 1400      4E47575F 
 1400      4743435F 
 1400      56455253 
 1400      494F4E20 
 1401 2257 01       		.byte	0x1
 1402 2258 CD01     		.uleb128 0xcd
 1403 225a 5F5F4D49 		.ascii "__MINGW_GNUC_PREREQ(major,minor) (__GNUC__ > (major) || (__GNUC__ == (major) && __GNUC_MIN
 1403      4E47575F 
 1403      474E5543 
 1403      5F505245 
 1403      52455128 
 1404 22c6 01       		.byte	0x1
 1405 22c7 D801     		.uleb128 0xd8
 1406 22c9 5F5F4D49 		.ascii "__MINGW_MSC_PREREQ(major,minor) 0\0"
 1406      4E47575F 
 1406      4D53435F 
 1406      50524552 
 1406      4551286D 
 1407 22eb 01       		.byte	0x1
 1408 22ec E401     		.uleb128 0xe4
 1409 22ee 5F5F4D49 		.ascii "__MINGW_ATTRIB_DEPRECATED_STR(X) \0"
 1409      4E47575F 
 1409      41545452 
 1409      49425F44 
 1409      45505245 
 1410 2310 01       		.byte	0x1
 1411 2311 E701     		.uleb128 0xe7
 1412 2313 5F5F4D49 		.ascii "__MINGW_SEC_WARN_STR \"This function or variable may be unsafe, use _CRT_SECURE_NO_WARNING
 1412      4E47575F 
 1412      5345435F 
 1412      5741524E 
 1412      5F535452 
 1413 2386 01       		.byte	0x1
 1414 2387 EA01     		.uleb128 0xea
 1415 2389 5F5F4D49 		.ascii "__MINGW_MSVC2005_DEPREC_STR \"This POSIX function is deprecated beginning in Visual C++ 20
 1415      4E47575F 
 1415      4D535643 
 1415      32303035 
 1415      5F444550 
 1416 241c 01       		.byte	0x1
 1417 241d EE01     		.uleb128 0xee
GAS LISTING c:\tmp\ccNEBtDk.s 			page 50


 1418 241f 5F5F4D49 		.ascii "__MINGW_ATTRIB_DEPRECATED_MSVC2005 __MINGW_ATTRIB_DEPRECATED_STR(__MINGW_MSVC2005_DEPREC_S
 1418      4E47575F 
 1418      41545452 
 1418      49425F44 
 1418      45505245 
 1419 247d 01       		.byte	0x1
 1420 247e F501     		.uleb128 0xf5
 1421 2480 5F5F4D49 		.ascii "__MINGW_ATTRIB_DEPRECATED_SEC_WARN __MINGW_ATTRIB_DEPRECATED_STR(__MINGW_SEC_WARN_STR)\0"
 1421      4E47575F 
 1421      41545452 
 1421      49425F44 
 1421      45505245 
 1422 24d7 01       		.byte	0x1
 1423 24d8 FB01     		.uleb128 0xfb
 1424 24da 5F5F4D49 		.ascii "__MINGW_MS_PRINTF(__format,__args) __attribute__((__format__(ms_printf, __format,__args)))
 1424      4E47575F 
 1424      4D535F50 
 1424      52494E54 
 1424      46285F5F 
 1425 2535 01       		.byte	0x1
 1426 2536 FE01     		.uleb128 0xfe
 1427 2538 5F5F4D49 		.ascii "__MINGW_MS_SCANF(__format,__args) __attribute__((__format__(ms_scanf, __format,__args)))\0
 1427      4E47575F 
 1427      4D535F53 
 1427      43414E46 
 1427      285F5F66 
 1428 2591 01       		.byte	0x1
 1429 2592 8102     		.uleb128 0x101
 1430 2594 5F5F4D49 		.ascii "__MINGW_GNU_PRINTF(__format,__args) __attribute__((__format__(gnu_printf,__format,__args))
 1430      4E47575F 
 1430      474E555F 
 1430      5052494E 
 1430      5446285F 
 1431 25f0 01       		.byte	0x1
 1432 25f1 8402     		.uleb128 0x104
 1433 25f3 5F5F4D49 		.ascii "__MINGW_GNU_SCANF(__format,__args) __attribute__((__format__(gnu_scanf, __format,__args)))
 1433      4E47575F 
 1433      474E555F 
 1433      5343414E 
 1433      46285F5F 
 1434 264e 02       		.byte	0x2
 1435 264f 8702     		.uleb128 0x107
 1436 2651 5F5F6D69 		.ascii "__mingw_ovr\0"
 1436      6E67775F 
 1436      6F767200 
 1437 265d 01       		.byte	0x1
 1438 265e 8C02     		.uleb128 0x10c
 1439 2660 5F5F6D69 		.ascii "__mingw_ovr static __attribute__ ((__unused__)) __inline__ __cdecl\0"
 1439      6E67775F 
 1439      6F767220 
 1439      73746174 
 1439      6963205F 
 1440 26a3 04       		.byte	0x4
 1441              		.file 6 "c:/programfiles/octave/octave-4.0.3/include/_mingw_secapi.h"
 1442 26a4 03       		.byte	0x3
 1443 26a5 0D       		.uleb128 0xd
 1444 26a6 06       		.uleb128 0x6
GAS LISTING c:\tmp\ccNEBtDk.s 			page 51


 1445 26a7 01       		.byte	0x1
 1446 26a8 08       		.uleb128 0x8
 1447 26a9 5F494E43 		.ascii "_INC_MINGW_SECAPI \0"
 1447      5F4D494E 
 1447      47575F53 
 1447      45434150 
 1447      492000
 1448 26bc 02       		.byte	0x2
 1449 26bd 1D       		.uleb128 0x1d
 1450 26be 5F435254 		.ascii "_CRT_SECURE_CPP_OVERLOAD_SECURE_NAMES\0"
 1450      5F534543 
 1450      5552455F 
 1450      4350505F 
 1450      4F564552 
 1451 26e4 02       		.byte	0x2
 1452 26e5 1E       		.uleb128 0x1e
 1453 26e6 5F435254 		.ascii "_CRT_SECURE_CPP_OVERLOAD_SECURE_NAMES_MEMORY\0"
 1453      5F534543 
 1453      5552455F 
 1453      4350505F 
 1453      4F564552 
 1454 2713 02       		.byte	0x2
 1455 2714 1F       		.uleb128 0x1f
 1456 2715 5F435254 		.ascii "_CRT_SECURE_CPP_OVERLOAD_STANDARD_NAMES\0"
 1456      5F534543 
 1456      5552455F 
 1456      4350505F 
 1456      4F564552 
 1457 273d 02       		.byte	0x2
 1458 273e 20       		.uleb128 0x20
 1459 273f 5F435254 		.ascii "_CRT_SECURE_CPP_OVERLOAD_STANDARD_NAMES_COUNT\0"
 1459      5F534543 
 1459      5552455F 
 1459      4350505F 
 1459      4F564552 
 1460 276d 02       		.byte	0x2
 1461 276e 21       		.uleb128 0x21
 1462 276f 5F435254 		.ascii "_CRT_SECURE_CPP_OVERLOAD_STANDARD_NAMES_MEMORY\0"
 1462      5F534543 
 1462      5552455F 
 1462      4350505F 
 1462      4F564552 
 1463 279e 01       		.byte	0x1
 1464 279f 22       		.uleb128 0x22
 1465 27a0 5F435254 		.ascii "_CRT_SECURE_CPP_OVERLOAD_SECURE_NAMES 0\0"
 1465      5F534543 
 1465      5552455F 
 1465      4350505F 
 1465      4F564552 
 1466 27c8 01       		.byte	0x1
 1467 27c9 23       		.uleb128 0x23
 1468 27ca 5F435254 		.ascii "_CRT_SECURE_CPP_OVERLOAD_SECURE_NAMES_MEMORY 0\0"
 1468      5F534543 
 1468      5552455F 
 1468      4350505F 
 1468      4F564552 
 1469 27f9 01       		.byte	0x1
GAS LISTING c:\tmp\ccNEBtDk.s 			page 52


 1470 27fa 24       		.uleb128 0x24
 1471 27fb 5F435254 		.ascii "_CRT_SECURE_CPP_OVERLOAD_STANDARD_NAMES 0\0"
 1471      5F534543 
 1471      5552455F 
 1471      4350505F 
 1471      4F564552 
 1472 2825 01       		.byte	0x1
 1473 2826 25       		.uleb128 0x25
 1474 2827 5F435254 		.ascii "_CRT_SECURE_CPP_OVERLOAD_STANDARD_NAMES_COUNT 0\0"
 1474      5F534543 
 1474      5552455F 
 1474      4350505F 
 1474      4F564552 
 1475 2857 01       		.byte	0x1
 1476 2858 26       		.uleb128 0x26
 1477 2859 5F435254 		.ascii "_CRT_SECURE_CPP_OVERLOAD_STANDARD_NAMES_MEMORY 0\0"
 1477      5F534543 
 1477      5552455F 
 1477      4350505F 
 1477      4F564552 
 1478 288a 01       		.byte	0x1
 1479 288b 29       		.uleb128 0x29
 1480 288c 5F5F4D49 		.ascii "__MINGW_CRT_NAME_CONCAT1(sym) ::sym\0"
 1480      4E47575F 
 1480      4352545F 
 1480      4E414D45 
 1480      5F434F4E 
 1481 28b0 01       		.byte	0x1
 1482 28b1 2A       		.uleb128 0x2a
 1483 28b2 5F5F4D49 		.ascii "__MINGW_CRT_NAME_CONCAT2(sym) ::sym ##_s\0"
 1483      4E47575F 
 1483      4352545F 
 1483      4E414D45 
 1483      5F434F4E 
 1484 28db 01       		.byte	0x1
 1485 28dc 2B       		.uleb128 0x2b
 1486 28dd 5F5F4D49 		.ascii "__MINGW_CRT_NAME_INSECURE(sym) ::__insecure__ ##sym\0"
 1486      4E47575F 
 1486      4352545F 
 1486      4E414D45 
 1486      5F494E53 
 1487 2911 01       		.byte	0x1
 1488 2912 2C       		.uleb128 0x2c
 1489 2913 5F5F4D49 		.ascii "__MINGW_CRT_NAME_INSECURE_DEF(sym) __insecure__ ##sym\0"
 1489      4E47575F 
 1489      4352545F 
 1489      4E414D45 
 1489      5F494E53 
 1490 2949 01       		.byte	0x1
 1491 294a 45       		.uleb128 0x45
 1492 294b 5F5F4352 		.ascii "__CRT_SECURE_CPP_OVERLOAD_SECURE_NAMES_0_2_(__ret,__func,__type1,__attrib1,__arg1,__type2,
 1492      545F5345 
 1492      43555245 
 1492      5F435050 
 1492      5F4F5645 
 1493 2a3e 01       		.byte	0x1
 1494 2a3f 56       		.uleb128 0x56
GAS LISTING c:\tmp\ccNEBtDk.s 			page 53


 1495 2a40 5F5F4352 		.ascii "__CRT_SECURE_CPP_OVERLOAD_SECURE_NAMES_MEMORY_0_3_(__ret,__func,__type1,__attrib1,__arg1,_
 1495      545F5345 
 1495      43555245 
 1495      5F435050 
 1495      5F4F5645 
 1496 2b6d 01       		.byte	0x1
 1497 2b6e 71       		.uleb128 0x71
 1498 2b6f 5F5F4352 		.ascii "__CRT_SECURE_CPP_OVERLOAD_STANDARD_NAMES_0_2_(__ret,__func,__type1,__attrib1,__arg1,__type
 1498      545F5345 
 1498      43555245 
 1498      5F435050 
 1498      5F4F5645 
 1499 2c54 01       		.byte	0x1
 1500 2c55 B001     		.uleb128 0xb0
 1501 2c57 5F5F4352 		.ascii "__CRT_SECURE_CPP_OVERLOAD_STANDARD_NAMES_COUNT_0_3_(__ret,__func,__type1,__attrib1,__arg1,
 1501      545F5345 
 1501      43555245 
 1501      5F435050 
 1501      5F4F5645 
 1502 2d75 01       		.byte	0x1
 1503 2d76 B201     		.uleb128 0xb2
 1504 2d78 5F5F4352 		.ascii "__CRT_SECURE_CPP_OVERLOAD_STANDARD_NAMES_COUNT_1_4_(__ret,__imp_attrib,__func,__real_func,
 1504      545F5345 
 1504      43555245 
 1504      5F435050 
 1504      5F4F5645 
 1505 2ee7 01       		.byte	0x1
 1506 2ee8 C501     		.uleb128 0xc5
 1507 2eea 5F5F4352 		.ascii "__CRT_SECURE_CPP_OVERLOAD_STANDARD_NAMES_MEMORY_0_3_(__ret,__func,__type1,__attrib1,__arg1
 1507      545F5345 
 1507      43555245 
 1507      5F435050 
 1507      5F4F5645 
 1508 3009 04       		.byte	0x4
 1509 300a 01       		.byte	0x1
 1510 300b 1A       		.uleb128 0x1a
 1511 300c 5F5F4C4F 		.ascii "__LONG32 long\0"
 1511      4E473332 
 1511      206C6F6E 
 1511      6700
 1512 301a 01       		.byte	0x1
 1513 301b 35       		.uleb128 0x35
 1514 301c 5F5F4D49 		.ascii "__MINGW_IMPORT extern __attribute__ ((__dllimport__))\0"
 1514      4E47575F 
 1514      494D504F 
 1514      52542065 
 1514      78746572 
 1515 3052 02       		.byte	0x2
 1516 3053 38       		.uleb128 0x38
 1517 3054 5F5F5553 		.ascii "__USE_CRTIMP\0"
 1517      455F4352 
 1517      54494D50 
 1517      00
 1518 3061 01       		.byte	0x1
 1519 3062 3A       		.uleb128 0x3a
 1520 3063 5F5F5553 		.ascii "__USE_CRTIMP 1\0"
 1520      455F4352 
GAS LISTING c:\tmp\ccNEBtDk.s 			page 54


 1520      54494D50 
 1520      203100
 1521 3072 01       		.byte	0x1
 1522 3073 3D       		.uleb128 0x3d
 1523 3074 5F435254 		.ascii "_CRTIMP __attribute__ ((__dllimport__))\0"
 1523      494D5020 
 1523      5F5F6174 
 1523      74726962 
 1523      7574655F 
 1524 309c 01       		.byte	0x1
 1525 309d 42       		.uleb128 0x42
 1526 309e 5F5F4445 		.ascii "__DECLSPEC_SUPPORTED \0"
 1526      434C5350 
 1526      45435F53 
 1526      5550504F 
 1526      52544544 
 1527 30b4 01       		.byte	0x1
 1528 30b5 4F       		.uleb128 0x4f
 1529 30b6 5553455F 		.ascii "USE___UUIDOF 0\0"
 1529      5F5F5555 
 1529      49444F46 
 1529      203000
 1530 30c5 01       		.byte	0x1
 1531 30c6 53       		.uleb128 0x53
 1532 30c7 5F696E6C 		.ascii "_inline __inline\0"
 1532      696E6520 
 1532      5F5F696E 
 1532      6C696E65 
 1532      00
 1533 30d8 01       		.byte	0x1
 1534 30d9 5F       		.uleb128 0x5f
 1535 30da 5F5F4352 		.ascii "__CRT_INLINE extern __inline__\0"
 1535      545F494E 
 1535      4C494E45 
 1535      20657874 
 1535      65726E20 
 1536 30f9 01       		.byte	0x1
 1537 30fa 64       		.uleb128 0x64
 1538 30fb 5F5F4D49 		.ascii "__MINGW_INTRIN_INLINE extern __inline__ __attribute__((__always_inline__,__gnu_inline__))\
 1538      4E47575F 
 1538      494E5452 
 1538      494E5F49 
 1538      4E4C494E 
 1539 3155 02       		.byte	0x2
 1540 3156 69       		.uleb128 0x69
 1541 3157 5F5F4352 		.ascii "__CRT__NO_INLINE\0"
 1541      545F5F4E 
 1541      4F5F494E 
 1541      4C494E45 
 1541      00
 1542 3168 01       		.byte	0x1
 1543 3169 6A       		.uleb128 0x6a
 1544 316a 5F5F4352 		.ascii "__CRT__NO_INLINE 1\0"
 1544      545F5F4E 
 1544      4F5F494E 
 1544      4C494E45 
 1544      203100
GAS LISTING c:\tmp\ccNEBtDk.s 			page 55


 1545 317d 01       		.byte	0x1
 1546 317e 72       		.uleb128 0x72
 1547 317f 5F5F554E 		.ascii "__UNUSED_PARAM(x) x __attribute__ ((__unused__))\0"
 1547      55534544 
 1547      5F504152 
 1547      414D2878 
 1547      29207820 
 1548 31b0 01       		.byte	0x1
 1549 31b1 8101     		.uleb128 0x81
 1550 31b3 5F5F7265 		.ascii "__restrict_arr __restrict\0"
 1550      73747269 
 1550      63745F61 
 1550      7272205F 
 1550      5F726573 
 1551 31cd 01       		.byte	0x1
 1552 31ce 9101     		.uleb128 0x91
 1553 31d0 5F5F4D49 		.ascii "__MINGW_ATTRIB_NORETURN __attribute__ ((__noreturn__))\0"
 1553      4E47575F 
 1553      41545452 
 1553      49425F4E 
 1553      4F524554 
 1554 3207 01       		.byte	0x1
 1555 3208 9201     		.uleb128 0x92
 1556 320a 5F5F4D49 		.ascii "__MINGW_ATTRIB_CONST __attribute__ ((__const__))\0"
 1556      4E47575F 
 1556      41545452 
 1556      49425F43 
 1556      4F4E5354 
 1557 323b 01       		.byte	0x1
 1558 323c 9C01     		.uleb128 0x9c
 1559 323e 5F5F4D49 		.ascii "__MINGW_ATTRIB_MALLOC __attribute__ ((__malloc__))\0"
 1559      4E47575F 
 1559      41545452 
 1559      49425F4D 
 1559      414C4C4F 
 1560 3271 01       		.byte	0x1
 1561 3272 9D01     		.uleb128 0x9d
 1562 3274 5F5F4D49 		.ascii "__MINGW_ATTRIB_PURE __attribute__ ((__pure__))\0"
 1562      4E47575F 
 1562      41545452 
 1562      49425F50 
 1562      55524520 
 1563 32a3 01       		.byte	0x1
 1564 32a4 AA01     		.uleb128 0xaa
 1565 32a6 5F5F4D49 		.ascii "__MINGW_ATTRIB_NONNULL(arg) __attribute__ ((__nonnull__ (arg)))\0"
 1565      4E47575F 
 1565      41545452 
 1565      49425F4E 
 1565      4F4E4E55 
 1566 32e6 01       		.byte	0x1
 1567 32e7 B001     		.uleb128 0xb0
 1568 32e9 5F5F4D49 		.ascii "__MINGW_ATTRIB_UNUSED __attribute__ ((__unused__))\0"
 1568      4E47575F 
 1568      41545452 
 1568      49425F55 
 1568      4E555345 
 1569 331c 01       		.byte	0x1
GAS LISTING c:\tmp\ccNEBtDk.s 			page 56


 1570 331d B601     		.uleb128 0xb6
 1571 331f 5F5F4D49 		.ascii "__MINGW_ATTRIB_USED __attribute__ ((__used__))\0"
 1571      4E47575F 
 1571      41545452 
 1571      49425F55 
 1571      53454420 
 1572 334e 01       		.byte	0x1
 1573 334f B701     		.uleb128 0xb7
 1574 3351 5F5F4D49 		.ascii "__MINGW_ATTRIB_DEPRECATED __attribute__ ((__deprecated__))\0"
 1574      4E47575F 
 1574      41545452 
 1574      49425F44 
 1574      45505245 
 1575 338c 01       		.byte	0x1
 1576 338d C101     		.uleb128 0xc1
 1577 338f 5F5F4D49 		.ascii "__MINGW_NOTHROW __attribute__ ((__nothrow__))\0"
 1577      4E47575F 
 1577      4E4F5448 
 1577      524F5720 
 1577      5F5F6174 
 1578 33bd 01       		.byte	0x1
 1579 33be C901     		.uleb128 0xc9
 1580 33c0 5F5F4D49 		.ascii "__MINGW_ATTRIB_NO_OPTIMIZE __attribute__((__optimize__ (\"0\")))\0"
 1580      4E47575F 
 1580      41545452 
 1580      49425F4E 
 1580      4F5F4F50 
 1581 33ff 01       		.byte	0x1
 1582 3400 CF01     		.uleb128 0xcf
 1583 3402 5F5F4D49 		.ascii "__MINGW_PRAGMA_PARAM(x) _Pragma (#x)\0"
 1583      4E47575F 
 1583      50524147 
 1583      4D415F50 
 1583      4152414D 
 1584 3427 01       		.byte	0x1
 1585 3428 D601     		.uleb128 0xd6
 1586 342a 5F5F4D49 		.ascii "__MINGW_BROKEN_INTERFACE(x) __MINGW_PRAGMA_PARAM(message (\"Interface \" _CRT_STRINGIZE(x)
 1586      4E47575F 
 1586      42524F4B 
 1586      454E5F49 
 1586      4E544552 
 1587 349f 01       		.byte	0x1
 1588 34a0 DC01     		.uleb128 0xdc
 1589 34a2 5F5F4D53 		.ascii "__MSVCRT_VERSION__ 0x0700\0"
 1589      56435254 
 1589      5F564552 
 1589      53494F4E 
 1589      5F5F2030 
 1590 34bc 01       		.byte	0x1
 1591 34bd E101     		.uleb128 0xe1
 1592 34bf 57494E56 		.ascii "WINVER 0x0502\0"
 1592      45522030 
 1592      78303530 
 1592      3200
 1593 34cd 01       		.byte	0x1
 1594 34ce E501     		.uleb128 0xe5
 1595 34d0 5F57494E 		.ascii "_WIN32_WINNT 0x502\0"
GAS LISTING c:\tmp\ccNEBtDk.s 			page 57


 1595      33325F57 
 1595      494E4E54 
 1595      20307835 
 1595      303200
 1596 34e3 01       		.byte	0x1
 1597 34e4 E901     		.uleb128 0xe9
 1598 34e6 5F494E54 		.ascii "_INT128_DEFINED \0"
 1598      3132385F 
 1598      44454649 
 1598      4E454420 
 1598      00
 1599 34f7 01       		.byte	0x1
 1600 34f8 EB01     		.uleb128 0xeb
 1601 34fa 5F5F696E 		.ascii "__int8 char\0"
 1601      74382063 
 1601      68617200 
 1602 3506 01       		.byte	0x1
 1603 3507 EC01     		.uleb128 0xec
 1604 3509 5F5F696E 		.ascii "__int16 short\0"
 1604      74313620 
 1604      73686F72 
 1604      7400
 1605 3517 01       		.byte	0x1
 1606 3518 ED01     		.uleb128 0xed
 1607 351a 5F5F696E 		.ascii "__int32 int\0"
 1607      74333220 
 1607      696E7400 
 1608 3526 01       		.byte	0x1
 1609 3527 EE01     		.uleb128 0xee
 1610 3529 5F5F696E 		.ascii "__int64 long long\0"
 1610      74363420 
 1610      6C6F6E67 
 1610      206C6F6E 
 1610      6700
 1611 353b 01       		.byte	0x1
 1612 353c FC01     		.uleb128 0xfc
 1613 353e 5F5F7074 		.ascii "__ptr32 \0"
 1613      72333220 
 1613      00
 1614 3547 01       		.byte	0x1
 1615 3548 FD01     		.uleb128 0xfd
 1616 354a 5F5F7074 		.ascii "__ptr64 \0"
 1616      72363420 
 1616      00
 1617 3553 01       		.byte	0x1
 1618 3554 FF01     		.uleb128 0xff
 1619 3556 5F5F756E 		.ascii "__unaligned \0"
 1619      616C6967 
 1619      6E656420 
 1619      00
 1620 3563 01       		.byte	0x1
 1621 3564 8202     		.uleb128 0x102
 1622 3566 5F5F7736 		.ascii "__w64 \0"
 1622      342000
 1623 356d 01       		.byte	0x1
 1624 356e 8702     		.uleb128 0x107
 1625 3570 5F5F666F 		.ascii "__forceinline extern __inline__ __attribute__((__always_inline__,__gnu_inline__))\0"
GAS LISTING c:\tmp\ccNEBtDk.s 			page 58


 1625      72636569 
 1625      6E6C696E 
 1625      65206578 
 1625      7465726E 
 1626 35c2 01       		.byte	0x1
 1627 35c3 9302     		.uleb128 0x113
 1628 35c5 5F5F6E6F 		.ascii "__nothrow \0"
 1628      7468726F 
 1628      772000
 1629 35d0 02       		.byte	0x2
 1630 35d1 9702     		.uleb128 0x117
 1631 35d3 5F435254 		.ascii "_CRT_PACKING\0"
 1631      5F504143 
 1631      4B494E47 
 1631      00
 1632 35e0 01       		.byte	0x1
 1633 35e1 9802     		.uleb128 0x118
 1634 35e3 5F435254 		.ascii "_CRT_PACKING 8\0"
 1634      5F504143 
 1634      4B494E47 
 1634      203800
 1635              		.file 7 "c:/programfiles/octave/octave-4.0.3/include/vadefs.h"
 1636 35f2 03       		.byte	0x3
 1637 35f3 9A02     		.uleb128 0x11a
 1638 35f5 07       		.uleb128 0x7
 1639 35f6 01       		.byte	0x1
 1640 35f7 07       		.uleb128 0x7
 1641 35f8 5F494E43 		.ascii "_INC_VADEFS \0"
 1641      5F564144 
 1641      45465320 
 1641      00
 1642 3605 03       		.byte	0x3
 1643 3606 09       		.uleb128 0x9
 1644 3607 04       		.uleb128 0x4
 1645 3608 01       		.byte	0x1
 1646 3609 A605     		.uleb128 0x2a6
 1647 360b 4D494E47 		.ascii "MINGW_SDK_INIT \0"
 1647      575F5344 
 1647      4B5F494E 
 1647      49542000 
 1648              		.file 8 "c:/programfiles/octave/octave-4.0.3/include/sdks/_mingw_directx.h"
 1649 361b 03       		.byte	0x3
 1650 361c AE05     		.uleb128 0x2ae
 1651 361e 08       		.uleb128 0x8
 1652 361f 01       		.byte	0x1
 1653 3620 03       		.uleb128 0x3
 1654 3621 5F5F4D49 		.ascii "__MINGW_HAS_DXSDK 1\0"
 1654      4E47575F 
 1654      4841535F 
 1654      44585344 
 1654      4B203100 
 1655 3635 01       		.byte	0x1
 1656 3636 06       		.uleb128 0x6
 1657 3637 4D494E47 		.ascii "MINGW_HAS_DDRAW_H 1\0"
 1657      575F4841 
 1657      535F4444 
 1657      5241575F 
GAS LISTING c:\tmp\ccNEBtDk.s 			page 59


 1657      48203100 
 1658 364b 01       		.byte	0x1
 1659 364c 07       		.uleb128 0x7
 1660 364d 4D494E47 		.ascii "MINGW_DDRAW_VERSION 7\0"
 1660      575F4444 
 1660      5241575F 
 1660      56455253 
 1660      494F4E20 
 1661 3663 04       		.byte	0x4
 1662              		.file 9 "c:/programfiles/octave/octave-4.0.3/include/sdks/_mingw_ddk.h"
 1663 3664 03       		.byte	0x3
 1664 3665 AF05     		.uleb128 0x2af
 1665 3667 09       		.uleb128 0x9
 1666 3668 01       		.byte	0x1
 1667 3669 02       		.uleb128 0x2
 1668 366a 4D494E47 		.ascii "MINGW_DDK_H \0"
 1668      575F4444 
 1668      4B5F4820 
 1668      00
 1669 3677 01       		.byte	0x1
 1670 3678 04       		.uleb128 0x4
 1671 3679 4D494E47 		.ascii "MINGW_HAS_DDK_H 1\0"
 1671      575F4841 
 1671      535F4444 
 1671      4B5F4820 
 1671      3100
 1672 368b 04       		.byte	0x4
 1673 368c 04       		.byte	0x4
 1674 368d 01       		.byte	0x1
 1675 368e 15       		.uleb128 0x15
 1676 368f 5F5F474E 		.ascii "__GNUC_VA_LIST \0"
 1676      55435F56 
 1676      415F4C49 
 1676      53542000 
 1677 369f 01       		.byte	0x1
 1678 36a0 1B       		.uleb128 0x1b
 1679 36a1 5F56415F 		.ascii "_VA_LIST_DEFINED \0"
 1679      4C495354 
 1679      5F444546 
 1679      494E4544 
 1679      2000
 1680 36b3 01       		.byte	0x1
 1681 36b4 28       		.uleb128 0x28
 1682 36b5 5F414444 		.ascii "_ADDRESSOF(v) (&(v))\0"
 1682      52455353 
 1682      4F462876 
 1682      29202826 
 1682      28762929 
 1683 36ca 01       		.byte	0x1
 1684 36cb 2E       		.uleb128 0x2e
 1685 36cc 5F637274 		.ascii "_crt_va_start(v,l) __builtin_va_start(v,l)\0"
 1685      5F76615F 
 1685      73746172 
 1685      7428762C 
 1685      6C29205F 
 1686 36f7 01       		.byte	0x1
 1687 36f8 2F       		.uleb128 0x2f
GAS LISTING c:\tmp\ccNEBtDk.s 			page 60


 1688 36f9 5F637274 		.ascii "_crt_va_arg(v,l) __builtin_va_arg(v,l)\0"
 1688      5F76615F 
 1688      61726728 
 1688      762C6C29 
 1688      205F5F62 
 1689 3720 01       		.byte	0x1
 1690 3721 30       		.uleb128 0x30
 1691 3722 5F637274 		.ascii "_crt_va_end(v) __builtin_va_end(v)\0"
 1691      5F76615F 
 1691      656E6428 
 1691      7629205F 
 1691      5F627569 
 1692 3745 01       		.byte	0x1
 1693 3746 31       		.uleb128 0x31
 1694 3747 5F637274 		.ascii "_crt_va_copy(d,s) __builtin_va_copy(d,s)\0"
 1694      5F76615F 
 1694      636F7079 
 1694      28642C73 
 1694      29205F5F 
 1695 3770 04       		.byte	0x4
 1696 3771 01       		.byte	0x1
 1697 3772 A102     		.uleb128 0x121
 1698 3774 5F5F4352 		.ascii "__CRT_STRINGIZE(_Value) #_Value\0"
 1698      545F5354 
 1698      52494E47 
 1698      495A4528 
 1698      5F56616C 
 1699 3794 01       		.byte	0x1
 1700 3795 A202     		.uleb128 0x122
 1701 3797 5F435254 		.ascii "_CRT_STRINGIZE(_Value) __CRT_STRINGIZE(_Value)\0"
 1701      5F535452 
 1701      494E4749 
 1701      5A45285F 
 1701      56616C75 
 1702 37c6 01       		.byte	0x1
 1703 37c7 A602     		.uleb128 0x126
 1704 37c9 5F5F4352 		.ascii "__CRT_WIDE(_String) L ## _String\0"
 1704      545F5749 
 1704      4445285F 
 1704      53747269 
 1704      6E672920 
 1705 37ea 01       		.byte	0x1
 1706 37eb A702     		.uleb128 0x127
 1707 37ed 5F435254 		.ascii "_CRT_WIDE(_String) __CRT_WIDE(_String)\0"
 1707      5F574944 
 1707      45285F53 
 1707      7472696E 
 1707      6729205F 
 1708 3814 01       		.byte	0x1
 1709 3815 AB02     		.uleb128 0x12b
 1710 3817 5F573634 		.ascii "_W64 \0"
 1710      2000
 1711 381d 01       		.byte	0x1
 1712 381e B202     		.uleb128 0x132
 1713 3820 5F435254 		.ascii "_CRTIMP_NOIA64 _CRTIMP\0"
 1713      494D505F 
 1713      4E4F4941 
GAS LISTING c:\tmp\ccNEBtDk.s 			page 61


 1713      3634205F 
 1713      43525449 
 1714 3837 01       		.byte	0x1
 1715 3838 B702     		.uleb128 0x137
 1716 383a 5F435254 		.ascii "_CRTIMP2 _CRTIMP\0"
 1716      494D5032 
 1716      205F4352 
 1716      54494D50 
 1716      00
 1717 384b 01       		.byte	0x1
 1718 384c BB02     		.uleb128 0x13b
 1719 384e 5F435254 		.ascii "_CRTIMP_ALTERNATIVE _CRTIMP\0"
 1719      494D505F 
 1719      414C5445 
 1719      524E4154 
 1719      49564520 
 1720 386a 01       		.byte	0x1
 1721 386b BC02     		.uleb128 0x13c
 1722 386d 5F435254 		.ascii "_CRT_ALTERNATIVE_IMPORTED \0"
 1722      5F414C54 
 1722      45524E41 
 1722      54495645 
 1722      5F494D50 
 1723 3888 01       		.byte	0x1
 1724 3889 C002     		.uleb128 0x140
 1725 388b 5F4D5254 		.ascii "_MRTIMP2 _CRTIMP\0"
 1725      494D5032 
 1725      205F4352 
 1725      54494D50 
 1725      00
 1726 389c 01       		.byte	0x1
 1727 389d C902     		.uleb128 0x149
 1728 389f 5F444C4C 		.ascii "_DLL \0"
 1728      2000
 1729 38a5 01       		.byte	0x1
 1730 38a6 CD02     		.uleb128 0x14d
 1731 38a8 5F4D5420 		.ascii "_MT \0"
 1731      00
 1732 38ad 01       		.byte	0x1
 1733 38ae D102     		.uleb128 0x151
 1734 38b0 5F4D4352 		.ascii "_MCRTIMP _CRTIMP\0"
 1734      54494D50 
 1734      205F4352 
 1734      54494D50 
 1734      00
 1735 38c1 01       		.byte	0x1
 1736 38c2 D502     		.uleb128 0x155
 1737 38c4 5F435254 		.ascii "_CRTIMP_PURE _CRTIMP\0"
 1737      494D505F 
 1737      50555245 
 1737      205F4352 
 1737      54494D50 
 1738 38d9 01       		.byte	0x1
 1739 38da D902     		.uleb128 0x159
 1740 38dc 5F50474C 		.ascii "_PGLOBAL \0"
 1740      4F42414C 
 1740      2000
GAS LISTING c:\tmp\ccNEBtDk.s 			page 62


 1741 38e6 01       		.byte	0x1
 1742 38e7 DD02     		.uleb128 0x15d
 1743 38e9 5F41474C 		.ascii "_AGLOBAL \0"
 1743      4F42414C 
 1743      2000
 1744 38f3 01       		.byte	0x1
 1745 38f4 E002     		.uleb128 0x160
 1746 38f6 5F534543 		.ascii "_SECURECRT_FILL_BUFFER_PATTERN 0xFD\0"
 1746      55524543 
 1746      52545F46 
 1746      494C4C5F 
 1746      42554646 
 1747 391a 01       		.byte	0x1
 1748 391b E102     		.uleb128 0x161
 1749 391d 5F435254 		.ascii "_CRT_DEPRECATE_TEXT(_Text) __declspec(deprecated)\0"
 1749      5F444550 
 1749      52454341 
 1749      54455F54 
 1749      45585428 
 1750 394f 01       		.byte	0x1
 1751 3950 E402     		.uleb128 0x164
 1752 3952 5F435254 		.ascii "_CRT_INSECURE_DEPRECATE_MEMORY(_Replacement) \0"
 1752      5F494E53 
 1752      45435552 
 1752      455F4445 
 1752      50524543 
 1753 3980 01       		.byte	0x1
 1754 3981 E802     		.uleb128 0x168
 1755 3983 5F435254 		.ascii "_CRT_INSECURE_DEPRECATE_GLOBALS(_Replacement) \0"
 1755      5F494E53 
 1755      45435552 
 1755      455F4445 
 1755      50524543 
 1756 39b2 01       		.byte	0x1
 1757 39b3 EC02     		.uleb128 0x16c
 1758 39b5 5F435254 		.ascii "_CRT_MANAGED_HEAP_DEPRECATE \0"
 1758      5F4D414E 
 1758      41474544 
 1758      5F484541 
 1758      505F4445 
 1759 39d2 01       		.byte	0x1
 1760 39d3 F002     		.uleb128 0x170
 1761 39d5 5F435254 		.ascii "_CRT_OBSOLETE(_NewItem) \0"
 1761      5F4F4253 
 1761      4F4C4554 
 1761      45285F4E 
 1761      65774974 
 1762 39ee 01       		.byte	0x1
 1763 39ef F602     		.uleb128 0x176
 1764 39f1 5F53495A 		.ascii "_SIZE_T_DEFINED \0"
 1764      455F545F 
 1764      44454649 
 1764      4E454420 
 1764      00
 1765 3a02 02       		.byte	0x2
 1766 3a03 F702     		.uleb128 0x177
 1767 3a05 73697A65 		.ascii "size_t\0"
GAS LISTING c:\tmp\ccNEBtDk.s 			page 63


 1767      5F7400
 1768 3a0c 01       		.byte	0x1
 1769 3a0d 8003     		.uleb128 0x180
 1770 3a0f 5F535349 		.ascii "_SSIZE_T_DEFINED \0"
 1770      5A455F54 
 1770      5F444546 
 1770      494E4544 
 1770      2000
 1771 3a21 02       		.byte	0x2
 1772 3a22 8103     		.uleb128 0x181
 1773 3a24 7373697A 		.ascii "ssize_t\0"
 1773      655F7400 
 1774 3a2c 01       		.byte	0x1
 1775 3a2d 8A03     		.uleb128 0x18a
 1776 3a2f 5F494E54 		.ascii "_INTPTR_T_DEFINED \0"
 1776      5054525F 
 1776      545F4445 
 1776      46494E45 
 1776      442000
 1777 3a42 01       		.byte	0x1
 1778 3a43 8C03     		.uleb128 0x18c
 1779 3a45 5F5F696E 		.ascii "__intptr_t_defined \0"
 1779      74707472 
 1779      5F745F64 
 1779      6566696E 
 1779      65642000 
 1780 3a59 02       		.byte	0x2
 1781 3a5a 8D03     		.uleb128 0x18d
 1782 3a5c 696E7470 		.ascii "intptr_t\0"
 1782      74725F74 
 1782      00
 1783 3a65 01       		.byte	0x1
 1784 3a66 9703     		.uleb128 0x197
 1785 3a68 5F55494E 		.ascii "_UINTPTR_T_DEFINED \0"
 1785      54505452 
 1785      5F545F44 
 1785      4546494E 
 1785      45442000 
 1786 3a7c 01       		.byte	0x1
 1787 3a7d 9903     		.uleb128 0x199
 1788 3a7f 5F5F7569 		.ascii "__uintptr_t_defined \0"
 1788      6E747074 
 1788      725F745F 
 1788      64656669 
 1788      6E656420 
 1789 3a94 02       		.byte	0x2
 1790 3a95 9A03     		.uleb128 0x19a
 1791 3a97 75696E74 		.ascii "uintptr_t\0"
 1791      7074725F 
 1791      7400
 1792 3aa1 01       		.byte	0x1
 1793 3aa2 A403     		.uleb128 0x1a4
 1794 3aa4 5F505452 		.ascii "_PTRDIFF_T_DEFINED \0"
 1794      44494646 
 1794      5F545F44 
 1794      4546494E 
 1794      45442000 
GAS LISTING c:\tmp\ccNEBtDk.s 			page 64


 1795 3ab8 01       		.byte	0x1
 1796 3ab9 A603     		.uleb128 0x1a6
 1797 3abb 5F505452 		.ascii "_PTRDIFF_T_ \0"
 1797      44494646 
 1797      5F545F20 
 1797      00
 1798 3ac8 02       		.byte	0x2
 1799 3ac9 A703     		.uleb128 0x1a7
 1800 3acb 70747264 		.ascii "ptrdiff_t\0"
 1800      6966665F 
 1800      7400
 1801 3ad5 01       		.byte	0x1
 1802 3ad6 B103     		.uleb128 0x1b1
 1803 3ad8 5F574348 		.ascii "_WCHAR_T_DEFINED \0"
 1803      41525F54 
 1803      5F444546 
 1803      494E4544 
 1803      2000
 1804 3aea 01       		.byte	0x1
 1805 3aeb B803     		.uleb128 0x1b8
 1806 3aed 5F574354 		.ascii "_WCTYPE_T_DEFINED \0"
 1806      5950455F 
 1806      545F4445 
 1806      46494E45 
 1806      442000
 1807 3b00 01       		.byte	0x1
 1808 3b01 BA03     		.uleb128 0x1ba
 1809 3b03 5F57494E 		.ascii "_WINT_T \0"
 1809      545F5420 
 1809      00
 1810 3b0c 01       		.byte	0x1
 1811 3b0d C203     		.uleb128 0x1c2
 1812 3b0f 5F555345 		.ascii "_USE_32BIT_TIME_T \0"
 1812      5F333242 
 1812      49545F54 
 1812      494D455F 
 1812      542000
 1813 3b22 01       		.byte	0x1
 1814 3b23 CE03     		.uleb128 0x1ce
 1815 3b25 5F455252 		.ascii "_ERRCODE_DEFINED \0"
 1815      434F4445 
 1815      5F444546 
 1815      494E4544 
 1815      2000
 1816 3b37 01       		.byte	0x1
 1817 3b38 D303     		.uleb128 0x1d3
 1818 3b3a 5F54494D 		.ascii "_TIME32_T_DEFINED \0"
 1818      4533325F 
 1818      545F4445 
 1818      46494E45 
 1818      442000
 1819 3b4d 01       		.byte	0x1
 1820 3b4e D803     		.uleb128 0x1d8
 1821 3b50 5F54494D 		.ascii "_TIME64_T_DEFINED \0"
 1821      4536345F 
 1821      545F4445 
 1821      46494E45 
GAS LISTING c:\tmp\ccNEBtDk.s 			page 65


 1821      442000
 1822 3b63 01       		.byte	0x1
 1823 3b64 DD03     		.uleb128 0x1dd
 1824 3b66 5F54494D 		.ascii "_TIME_T_DEFINED \0"
 1824      455F545F 
 1824      44454649 
 1824      4E454420 
 1824      00
 1825 3b77 01       		.byte	0x1
 1826 3b78 E603     		.uleb128 0x1e6
 1827 3b7a 5F434F4E 		.ascii "_CONST_RETURN \0"
 1827      53545F52 
 1827      45545552 
 1827      4E2000
 1828 3b89 01       		.byte	0x1
 1829 3b8a ED03     		.uleb128 0x1ed
 1830 3b8c 554E414C 		.ascii "UNALIGNED \0"
 1830      49474E45 
 1830      442000
 1831 3b97 01       		.byte	0x1
 1832 3b98 F503     		.uleb128 0x1f5
 1833 3b9a 5F435254 		.ascii "_CRT_ALIGN(x) __attribute__ ((__aligned__ (x)))\0"
 1833      5F414C49 
 1833      474E2878 
 1833      29205F5F 
 1833      61747472 
 1834 3bca 01       		.byte	0x1
 1835 3bcb FC03     		.uleb128 0x1fc
 1836 3bcd 5F5F4352 		.ascii "__CRTDECL __cdecl\0"
 1836      54444543 
 1836      4C205F5F 
 1836      63646563 
 1836      6C00
 1837 3bdf 01       		.byte	0x1
 1838 3be0 FF03     		.uleb128 0x1ff
 1839 3be2 5F415247 		.ascii "_ARGMAX 100\0"
 1839      4D415820 
 1839      31303000 
 1840 3bee 01       		.byte	0x1
 1841 3bef 8204     		.uleb128 0x202
 1842 3bf1 5F545255 		.ascii "_TRUNCATE ((size_t)-1)\0"
 1842      4E434154 
 1842      45202828 
 1842      73697A65 
 1842      5F74292D 
 1843 3c08 01       		.byte	0x1
 1844 3c09 8604     		.uleb128 0x206
 1845 3c0b 5F435254 		.ascii "_CRT_UNUSED(x) (void)x\0"
 1845      5F554E55 
 1845      53454428 
 1845      78292028 
 1845      766F6964 
 1846 3c22 02       		.byte	0x2
 1847 3c23 AA04     		.uleb128 0x22a
 1848 3c25 5F435254 		.ascii "_CRT_glob\0"
 1848      5F676C6F 
 1848      6200
GAS LISTING c:\tmp\ccNEBtDk.s 			page 66


 1849 3c2f 01       		.byte	0x1
 1850 3c30 AB04     		.uleb128 0x22b
 1851 3c32 5F435254 		.ascii "_CRT_glob _dowildcard\0"
 1851      5F676C6F 
 1851      62205F64 
 1851      6F77696C 
 1851      64636172 
 1852 3c48 01       		.byte	0x1
 1853 3c49 BB04     		.uleb128 0x23b
 1854 3c4b 5F5F414E 		.ascii "__ANONYMOUS_DEFINED \0"
 1854      4F4E594D 
 1854      4F55535F 
 1854      44454649 
 1854      4E454420 
 1855 3c60 01       		.byte	0x1
 1856 3c61 BC04     		.uleb128 0x23c
 1857 3c63 5F414E4F 		.ascii "_ANONYMOUS_UNION __MINGW_EXTENSION\0"
 1857      4E594D4F 
 1857      55535F55 
 1857      4E494F4E 
 1857      205F5F4D 
 1858 3c86 01       		.byte	0x1
 1859 3c87 BD04     		.uleb128 0x23d
 1860 3c89 5F414E4F 		.ascii "_ANONYMOUS_STRUCT __MINGW_EXTENSION\0"
 1860      4E594D4F 
 1860      55535F53 
 1860      54525543 
 1860      54205F5F 
 1861 3cad 01       		.byte	0x1
 1862 3cae BF04     		.uleb128 0x23f
 1863 3cb0 5F554E49 		.ascii "_UNION_NAME(x) \0"
 1863      4F4E5F4E 
 1863      414D4528 
 1863      78292000 
 1864 3cc0 01       		.byte	0x1
 1865 3cc1 C004     		.uleb128 0x240
 1866 3cc3 5F535452 		.ascii "_STRUCT_NAME(x) \0"
 1866      5543545F 
 1866      4E414D45 
 1866      28782920 
 1866      00
 1867 3cd4 01       		.byte	0x1
 1868 3cd5 D404     		.uleb128 0x254
 1869 3cd7 44554D4D 		.ascii "DUMMYUNIONNAME \0"
 1869      59554E49 
 1869      4F4E4E41 
 1869      4D452000 
 1870 3ce7 01       		.byte	0x1
 1871 3ce8 D504     		.uleb128 0x255
 1872 3cea 44554D4D 		.ascii "DUMMYUNIONNAME1 \0"
 1872      59554E49 
 1872      4F4E4E41 
 1872      4D453120 
 1872      00
 1873 3cfb 01       		.byte	0x1
 1874 3cfc D604     		.uleb128 0x256
 1875 3cfe 44554D4D 		.ascii "DUMMYUNIONNAME2 \0"
GAS LISTING c:\tmp\ccNEBtDk.s 			page 67


 1875      59554E49 
 1875      4F4E4E41 
 1875      4D453220 
 1875      00
 1876 3d0f 01       		.byte	0x1
 1877 3d10 D704     		.uleb128 0x257
 1878 3d12 44554D4D 		.ascii "DUMMYUNIONNAME3 \0"
 1878      59554E49 
 1878      4F4E4E41 
 1878      4D453320 
 1878      00
 1879 3d23 01       		.byte	0x1
 1880 3d24 D804     		.uleb128 0x258
 1881 3d26 44554D4D 		.ascii "DUMMYUNIONNAME4 \0"
 1881      59554E49 
 1881      4F4E4E41 
 1881      4D453420 
 1881      00
 1882 3d37 01       		.byte	0x1
 1883 3d38 D904     		.uleb128 0x259
 1884 3d3a 44554D4D 		.ascii "DUMMYUNIONNAME5 \0"
 1884      59554E49 
 1884      4F4E4E41 
 1884      4D453520 
 1884      00
 1885 3d4b 01       		.byte	0x1
 1886 3d4c DA04     		.uleb128 0x25a
 1887 3d4e 44554D4D 		.ascii "DUMMYUNIONNAME6 \0"
 1887      59554E49 
 1887      4F4E4E41 
 1887      4D453620 
 1887      00
 1888 3d5f 01       		.byte	0x1
 1889 3d60 DB04     		.uleb128 0x25b
 1890 3d62 44554D4D 		.ascii "DUMMYUNIONNAME7 \0"
 1890      59554E49 
 1890      4F4E4E41 
 1890      4D453720 
 1890      00
 1891 3d73 01       		.byte	0x1
 1892 3d74 DC04     		.uleb128 0x25c
 1893 3d76 44554D4D 		.ascii "DUMMYUNIONNAME8 \0"
 1893      59554E49 
 1893      4F4E4E41 
 1893      4D453820 
 1893      00
 1894 3d87 01       		.byte	0x1
 1895 3d88 DD04     		.uleb128 0x25d
 1896 3d8a 44554D4D 		.ascii "DUMMYUNIONNAME9 \0"
 1896      59554E49 
 1896      4F4E4E41 
 1896      4D453920 
 1896      00
 1897 3d9b 01       		.byte	0x1
 1898 3d9c EA04     		.uleb128 0x26a
 1899 3d9e 44554D4D 		.ascii "DUMMYSTRUCTNAME \0"
 1899      59535452 
GAS LISTING c:\tmp\ccNEBtDk.s 			page 68


 1899      5543544E 
 1899      414D4520 
 1899      00
 1900 3daf 01       		.byte	0x1
 1901 3db0 EB04     		.uleb128 0x26b
 1902 3db2 44554D4D 		.ascii "DUMMYSTRUCTNAME1 \0"
 1902      59535452 
 1902      5543544E 
 1902      414D4531 
 1902      2000
 1903 3dc4 01       		.byte	0x1
 1904 3dc5 EC04     		.uleb128 0x26c
 1905 3dc7 44554D4D 		.ascii "DUMMYSTRUCTNAME2 \0"
 1905      59535452 
 1905      5543544E 
 1905      414D4532 
 1905      2000
 1906 3dd9 01       		.byte	0x1
 1907 3dda ED04     		.uleb128 0x26d
 1908 3ddc 44554D4D 		.ascii "DUMMYSTRUCTNAME3 \0"
 1908      59535452 
 1908      5543544E 
 1908      414D4533 
 1908      2000
 1909 3dee 01       		.byte	0x1
 1910 3def EE04     		.uleb128 0x26e
 1911 3df1 44554D4D 		.ascii "DUMMYSTRUCTNAME4 \0"
 1911      59535452 
 1911      5543544E 
 1911      414D4534 
 1911      2000
 1912 3e03 01       		.byte	0x1
 1913 3e04 EF04     		.uleb128 0x26f
 1914 3e06 44554D4D 		.ascii "DUMMYSTRUCTNAME5 \0"
 1914      59535452 
 1914      5543544E 
 1914      414D4535 
 1914      2000
 1915 3e18 01       		.byte	0x1
 1916 3e19 8605     		.uleb128 0x286
 1917 3e1b 5F5F4352 		.ascii "__CRT_UUID_DECL(type,l,w1,w2,b1,b2,b3,b4,b5,b6,b7,b8) \0"
 1917      545F5555 
 1917      49445F44 
 1917      45434C28 
 1917      74797065 
 1918 3e52 04       		.byte	0x4
 1919 3e53 01       		.byte	0x1
 1920 3e54 12       		.uleb128 0x12
 1921 3e55 5F435254 		.ascii "_CRTNOALIAS \0"
 1921      4E4F414C 
 1921      49415320 
 1921      00
 1922 3e62 01       		.byte	0x1
 1923 3e63 16       		.uleb128 0x16
 1924 3e64 5F435254 		.ascii "_CRTRESTRICT \0"
 1924      52455354 
 1924      52494354 
GAS LISTING c:\tmp\ccNEBtDk.s 			page 69


 1924      2000
 1925 3e72 01       		.byte	0x1
 1926 3e73 1B       		.uleb128 0x1b
 1927 3e74 5F525349 		.ascii "_RSIZE_T_DEFINED \0"
 1927      5A455F54 
 1927      5F444546 
 1927      494E4544 
 1927      2000
 1928 3e86 01       		.byte	0x1
 1929 3e87 8A01     		.uleb128 0x8a
 1930 3e89 5F5F4445 		.ascii "__DEFINE_CPP_OVERLOAD_SECURE_FUNC_0_0(__ret,__func,__dsttype,__dst) \0"
 1930      46494E45 
 1930      5F435050 
 1930      5F4F5645 
 1930      524C4F41 
 1931 3ece 01       		.byte	0x1
 1932 3ecf 8B01     		.uleb128 0x8b
 1933 3ed1 5F5F4445 		.ascii "__DEFINE_CPP_OVERLOAD_SECURE_FUNC_0_1(__ret,__func,__dsttype,__dst,__type1,__arg1) \0"
 1933      46494E45 
 1933      5F435050 
 1933      5F4F5645 
 1933      524C4F41 
 1934 3f25 01       		.byte	0x1
 1935 3f26 8C01     		.uleb128 0x8c
 1936 3f28 5F5F4445 		.ascii "__DEFINE_CPP_OVERLOAD_SECURE_FUNC_0_2(__ret,__func,__dsttype,__dst,__type1,__arg1,__type2,
 1936      46494E45 
 1936      5F435050 
 1936      5F4F5645 
 1936      524C4F41 
 1937 3f8b 01       		.byte	0x1
 1938 3f8c 8D01     		.uleb128 0x8d
 1939 3f8e 5F5F4445 		.ascii "__DEFINE_CPP_OVERLOAD_SECURE_FUNC_0_3(__ret,__func,__dsttype,__dst,__type1,__arg1,__type2,
 1939      46494E45 
 1939      5F435050 
 1939      5F4F5645 
 1939      524C4F41 
 1940 4000 01       		.byte	0x1
 1941 4001 8E01     		.uleb128 0x8e
 1942 4003 5F5F4445 		.ascii "__DEFINE_CPP_OVERLOAD_SECURE_FUNC_0_4(__ret,__func,__dsttype,__dst,__type1,__arg1,__type2,
 1942      46494E45 
 1942      5F435050 
 1942      5F4F5645 
 1942      524C4F41 
 1943 4084 01       		.byte	0x1
 1944 4085 8F01     		.uleb128 0x8f
 1945 4087 5F5F4445 		.ascii "__DEFINE_CPP_OVERLOAD_SECURE_FUNC_1_1(__ret,__func,__type0,__arg0,__dsttype,__dst,__type1,
 1945      46494E45 
 1945      5F435050 
 1945      5F4F5645 
 1945      524C4F41 
 1946 40ea 01       		.byte	0x1
 1947 40eb 9001     		.uleb128 0x90
 1948 40ed 5F5F4445 		.ascii "__DEFINE_CPP_OVERLOAD_SECURE_FUNC_1_2(__ret,__func,__type0,__arg0,__dsttype,__dst,__type1,
 1948      46494E45 
 1948      5F435050 
 1948      5F4F5645 
 1948      524C4F41 
GAS LISTING c:\tmp\ccNEBtDk.s 			page 70


 1949 415f 01       		.byte	0x1
 1950 4160 9101     		.uleb128 0x91
 1951 4162 5F5F4445 		.ascii "__DEFINE_CPP_OVERLOAD_SECURE_FUNC_1_3(__ret,__func,__type0,__arg0,__dsttype,__dst,__type1,
 1951      46494E45 
 1951      5F435050 
 1951      5F4F5645 
 1951      524C4F41 
 1952 41e3 01       		.byte	0x1
 1953 41e4 9201     		.uleb128 0x92
 1954 41e6 5F5F4445 		.ascii "__DEFINE_CPP_OVERLOAD_SECURE_FUNC_2_0(__ret,__func,__type1,__arg1,__type2,__arg2,__dsttype
 1954      46494E45 
 1954      5F435050 
 1954      5F4F5645 
 1954      524C4F41 
 1955 4249 01       		.byte	0x1
 1956 424a 9301     		.uleb128 0x93
 1957 424c 5F5F4445 		.ascii "__DEFINE_CPP_OVERLOAD_SECURE_FUNC_0_1_ARGLIST(__ret,__func,__vfunc,__dsttype,__dst,__type1
 1957      46494E45 
 1957      5F435050 
 1957      5F4F5645 
 1957      524C4F41 
 1958 42b0 01       		.byte	0x1
 1959 42b1 9401     		.uleb128 0x94
 1960 42b3 5F5F4445 		.ascii "__DEFINE_CPP_OVERLOAD_SECURE_FUNC_0_2_ARGLIST(__ret,__func,__vfunc,__dsttype,__dst,__type1
 1960      46494E45 
 1960      5F435050 
 1960      5F4F5645 
 1960      524C4F41 
 1961 4326 01       		.byte	0x1
 1962 4327 9501     		.uleb128 0x95
 1963 4329 5F5F4445 		.ascii "__DEFINE_CPP_OVERLOAD_SECURE_FUNC_SPLITPATH(__ret,__func,__dsttype,__src) \0"
 1963      46494E45 
 1963      5F435050 
 1963      5F4F5645 
 1963      524C4F41 
 1964 4374 01       		.byte	0x1
 1965 4375 A501     		.uleb128 0xa5
 1966 4377 5F544147 		.ascii "_TAGLC_ID_DEFINED \0"
 1966      4C435F49 
 1966      445F4445 
 1966      46494E45 
 1966      442000
 1967 438a 01       		.byte	0x1
 1968 438b AE01     		.uleb128 0xae
 1969 438d 5F544852 		.ascii "_THREADLOCALEINFO \0"
 1969      4541444C 
 1969      4F43414C 
 1969      45494E46 
 1969      4F2000
 1970 43a0 01       		.byte	0x1
 1971 43a1 CB01     		.uleb128 0xcb
 1972 43a3 5F5F6372 		.ascii "__crt_typefix(ctype) \0"
 1972      745F7479 
 1972      70656669 
 1972      78286374 
 1972      79706529 
 1973 43b9 04       		.byte	0x4
GAS LISTING c:\tmp\ccNEBtDk.s 			page 71


 1974              		.file 10 "c:/programfiles/octave/octave-4.0.3/include/limits.h"
 1975 43ba 03       		.byte	0x3
 1976 43bb 0A       		.uleb128 0xa
 1977 43bc 0A       		.uleb128 0xa
 1978 43bd 01       		.byte	0x1
 1979 43be 09       		.uleb128 0x9
 1980 43bf 5F494E43 		.ascii "_INC_LIMITS \0"
 1980      5F4C494D 
 1980      49545320 
 1980      00
 1981 43cc 01       		.byte	0x1
 1982 43cd 14       		.uleb128 0x14
 1983 43ce 50415448 		.ascii "PATH_MAX 260\0"
 1983      5F4D4158 
 1983      20323630 
 1983      00
 1984 43db 01       		.byte	0x1
 1985 43dc 16       		.uleb128 0x16
 1986 43dd 43484152 		.ascii "CHAR_BIT 8\0"
 1986      5F424954 
 1986      203800
 1987 43e8 01       		.byte	0x1
 1988 43e9 17       		.uleb128 0x17
 1989 43ea 53434841 		.ascii "SCHAR_MIN (-128)\0"
 1989      525F4D49 
 1989      4E20282D 
 1989      31323829 
 1989      00
 1990 43fb 01       		.byte	0x1
 1991 43fc 18       		.uleb128 0x18
 1992 43fd 53434841 		.ascii "SCHAR_MAX 127\0"
 1992      525F4D41 
 1992      58203132 
 1992      3700
 1993 440b 01       		.byte	0x1
 1994 440c 19       		.uleb128 0x19
 1995 440d 55434841 		.ascii "UCHAR_MAX 0xff\0"
 1995      525F4D41 
 1995      58203078 
 1995      666600
 1996 441c 01       		.byte	0x1
 1997 441d 1B       		.uleb128 0x1b
 1998 441e 43484152 		.ascii "CHAR_MIN SCHAR_MIN\0"
 1998      5F4D494E 
 1998      20534348 
 1998      41525F4D 
 1998      494E00
 1999 4431 01       		.byte	0x1
 2000 4432 1C       		.uleb128 0x1c
 2001 4433 43484152 		.ascii "CHAR_MAX SCHAR_MAX\0"
 2001      5F4D4158 
 2001      20534348 
 2001      41525F4D 
 2001      415800
 2002 4446 01       		.byte	0x1
 2003 4447 1E       		.uleb128 0x1e
 2004 4448 4D425F4C 		.ascii "MB_LEN_MAX 5\0"
GAS LISTING c:\tmp\ccNEBtDk.s 			page 72


 2004      454E5F4D 
 2004      41582035 
 2004      00
 2005 4455 01       		.byte	0x1
 2006 4456 1F       		.uleb128 0x1f
 2007 4457 53485254 		.ascii "SHRT_MIN (-32768)\0"
 2007      5F4D494E 
 2007      20282D33 
 2007      32373638 
 2007      2900
 2008 4469 01       		.byte	0x1
 2009 446a 20       		.uleb128 0x20
 2010 446b 53485254 		.ascii "SHRT_MAX 32767\0"
 2010      5F4D4158 
 2010      20333237 
 2010      363700
 2011 447a 01       		.byte	0x1
 2012 447b 21       		.uleb128 0x21
 2013 447c 55534852 		.ascii "USHRT_MAX 0xffffU\0"
 2013      545F4D41 
 2013      58203078 
 2013      66666666 
 2013      5500
 2014 448e 01       		.byte	0x1
 2015 448f 22       		.uleb128 0x22
 2016 4490 494E545F 		.ascii "INT_MIN (-2147483647 - 1)\0"
 2016      4D494E20 
 2016      282D3231 
 2016      34373438 
 2016      33363437 
 2017 44aa 01       		.byte	0x1
 2018 44ab 23       		.uleb128 0x23
 2019 44ac 494E545F 		.ascii "INT_MAX 2147483647\0"
 2019      4D415820 
 2019      32313437 
 2019      34383336 
 2019      343700
 2020 44bf 01       		.byte	0x1
 2021 44c0 24       		.uleb128 0x24
 2022 44c1 55494E54 		.ascii "UINT_MAX 0xffffffffU\0"
 2022      5F4D4158 
 2022      20307866 
 2022      66666666 
 2022      66666655 
 2023 44d6 01       		.byte	0x1
 2024 44d7 25       		.uleb128 0x25
 2025 44d8 4C4F4E47 		.ascii "LONG_MIN (-2147483647L - 1)\0"
 2025      5F4D494E 
 2025      20282D32 
 2025      31343734 
 2025      38333634 
 2026 44f4 01       		.byte	0x1
 2027 44f5 26       		.uleb128 0x26
 2028 44f6 4C4F4E47 		.ascii "LONG_MAX 2147483647L\0"
 2028      5F4D4158 
 2028      20323134 
 2028      37343833 
GAS LISTING c:\tmp\ccNEBtDk.s 			page 73


 2028      3634374C 
 2029 450b 01       		.byte	0x1
 2030 450c 27       		.uleb128 0x27
 2031 450d 554C4F4E 		.ascii "ULONG_MAX 0xffffffffUL\0"
 2031      475F4D41 
 2031      58203078 
 2031      66666666 
 2031      66666666 
 2032 4524 01       		.byte	0x1
 2033 4525 28       		.uleb128 0x28
 2034 4526 4C4C4F4E 		.ascii "LLONG_MAX 9223372036854775807ll\0"
 2034      475F4D41 
 2034      58203932 
 2034      32333337 
 2034      32303336 
 2035 4546 01       		.byte	0x1
 2036 4547 29       		.uleb128 0x29
 2037 4548 4C4C4F4E 		.ascii "LLONG_MIN (-9223372036854775807ll - 1)\0"
 2037      475F4D49 
 2037      4E20282D 
 2037      39323233 
 2037      33373230 
 2038 456f 01       		.byte	0x1
 2039 4570 2A       		.uleb128 0x2a
 2040 4571 554C4C4F 		.ascii "ULLONG_MAX 0xffffffffffffffffull\0"
 2040      4E475F4D 
 2040      41582030 
 2040      78666666 
 2040      66666666 
 2041 4592 01       		.byte	0x1
 2042 4593 2C       		.uleb128 0x2c
 2043 4594 5F49385F 		.ascii "_I8_MIN (-127 - 1)\0"
 2043      4D494E20 
 2043      282D3132 
 2043      37202D20 
 2043      312900
 2044 45a7 01       		.byte	0x1
 2045 45a8 2D       		.uleb128 0x2d
 2046 45a9 5F49385F 		.ascii "_I8_MAX 127\0"
 2046      4D415820 
 2046      31323700 
 2047 45b5 01       		.byte	0x1
 2048 45b6 2E       		.uleb128 0x2e
 2049 45b7 5F554938 		.ascii "_UI8_MAX 0xffu\0"
 2049      5F4D4158 
 2049      20307866 
 2049      667500
 2050 45c6 01       		.byte	0x1
 2051 45c7 30       		.uleb128 0x30
 2052 45c8 5F493136 		.ascii "_I16_MIN (-32767 - 1)\0"
 2052      5F4D494E 
 2052      20282D33 
 2052      32373637 
 2052      202D2031 
 2053 45de 01       		.byte	0x1
 2054 45df 31       		.uleb128 0x31
 2055 45e0 5F493136 		.ascii "_I16_MAX 32767\0"
GAS LISTING c:\tmp\ccNEBtDk.s 			page 74


 2055      5F4D4158 
 2055      20333237 
 2055      363700
 2056 45ef 01       		.byte	0x1
 2057 45f0 32       		.uleb128 0x32
 2058 45f1 5F554931 		.ascii "_UI16_MAX 0xffffu\0"
 2058      365F4D41 
 2058      58203078 
 2058      66666666 
 2058      7500
 2059 4603 01       		.byte	0x1
 2060 4604 34       		.uleb128 0x34
 2061 4605 5F493332 		.ascii "_I32_MIN (-2147483647 - 1)\0"
 2061      5F4D494E 
 2061      20282D32 
 2061      31343734 
 2061      38333634 
 2062 4620 01       		.byte	0x1
 2063 4621 35       		.uleb128 0x35
 2064 4622 5F493332 		.ascii "_I32_MAX 2147483647\0"
 2064      5F4D4158 
 2064      20323134 
 2064      37343833 
 2064      36343700 
 2065 4636 01       		.byte	0x1
 2066 4637 36       		.uleb128 0x36
 2067 4638 5F554933 		.ascii "_UI32_MAX 0xffffffffu\0"
 2067      325F4D41 
 2067      58203078 
 2067      66666666 
 2067      66666666 
 2068 464e 02       		.byte	0x2
 2069 464f 39       		.uleb128 0x39
 2070 4650 4C4F4E47 		.ascii "LONG_LONG_MAX\0"
 2070      5F4C4F4E 
 2070      475F4D41 
 2070      5800
 2071 465e 01       		.byte	0x1
 2072 465f 3A       		.uleb128 0x3a
 2073 4660 4C4F4E47 		.ascii "LONG_LONG_MAX 9223372036854775807ll\0"
 2073      5F4C4F4E 
 2073      475F4D41 
 2073      58203932 
 2073      32333337 
 2074 4684 02       		.byte	0x2
 2075 4685 3B       		.uleb128 0x3b
 2076 4686 4C4F4E47 		.ascii "LONG_LONG_MIN\0"
 2076      5F4C4F4E 
 2076      475F4D49 
 2076      4E00
 2077 4694 01       		.byte	0x1
 2078 4695 3C       		.uleb128 0x3c
 2079 4696 4C4F4E47 		.ascii "LONG_LONG_MIN (-LONG_LONG_MAX-1)\0"
 2079      5F4C4F4E 
 2079      475F4D49 
 2079      4E20282D 
 2079      4C4F4E47 
GAS LISTING c:\tmp\ccNEBtDk.s 			page 75


 2080 46b7 02       		.byte	0x2
 2081 46b8 3D       		.uleb128 0x3d
 2082 46b9 554C4F4E 		.ascii "ULONG_LONG_MAX\0"
 2082      475F4C4F 
 2082      4E475F4D 
 2082      415800
 2083 46c8 01       		.byte	0x1
 2084 46c9 3E       		.uleb128 0x3e
 2085 46ca 554C4F4E 		.ascii "ULONG_LONG_MAX (2ull * LONG_LONG_MAX + 1ull)\0"
 2085      475F4C4F 
 2085      4E475F4D 
 2085      41582028 
 2085      32756C6C 
 2086 46f7 01       		.byte	0x1
 2087 46f8 41       		.uleb128 0x41
 2088 46f9 5F493634 		.ascii "_I64_MIN (-9223372036854775807ll - 1)\0"
 2088      5F4D494E 
 2088      20282D39 
 2088      32323333 
 2088      37323033 
 2089 471f 01       		.byte	0x1
 2090 4720 42       		.uleb128 0x42
 2091 4721 5F493634 		.ascii "_I64_MAX 9223372036854775807ll\0"
 2091      5F4D4158 
 2091      20393232 
 2091      33333732 
 2091      30333638 
 2092 4740 01       		.byte	0x1
 2093 4741 43       		.uleb128 0x43
 2094 4742 5F554936 		.ascii "_UI64_MAX 0xffffffffffffffffull\0"
 2094      345F4D41 
 2094      58203078 
 2094      66666666 
 2094      66666666 
 2095 4762 01       		.byte	0x1
 2096 4763 49       		.uleb128 0x49
 2097 4764 53495A45 		.ascii "SIZE_MAX UINT_MAX\0"
 2097      5F4D4158 
 2097      2055494E 
 2097      545F4D41 
 2097      5800
 2098 4776 01       		.byte	0x1
 2099 4777 51       		.uleb128 0x51
 2100 4778 5353495A 		.ascii "SSIZE_MAX INT_MAX\0"
 2100      455F4D41 
 2100      5820494E 
 2100      545F4D41 
 2100      5800
 2101 478a 04       		.byte	0x4
 2102 478b 01       		.byte	0x1
 2103 478c 1E       		.uleb128 0x1e
 2104 478d 4E554C4C 		.ascii "NULL ((void *)0)\0"
 2104      20282876 
 2104      6F696420 
 2104      2A293029 
 2104      00
 2105 479e 01       		.byte	0x1
GAS LISTING c:\tmp\ccNEBtDk.s 			page 76


 2106 479f 22       		.uleb128 0x22
 2107 47a0 45584954 		.ascii "EXIT_SUCCESS 0\0"
 2107      5F535543 
 2107      43455353 
 2107      203000
 2108 47af 01       		.byte	0x1
 2109 47b0 23       		.uleb128 0x23
 2110 47b1 45584954 		.ascii "EXIT_FAILURE 1\0"
 2110      5F464149 
 2110      4C555245 
 2110      203100
 2111 47c0 01       		.byte	0x1
 2112 47c1 26       		.uleb128 0x26
 2113 47c2 5F4F4E45 		.ascii "_ONEXIT_T_DEFINED \0"
 2113      5849545F 
 2113      545F4445 
 2113      46494E45 
 2113      442000
 2114 47d5 01       		.byte	0x1
 2115 47d6 2B       		.uleb128 0x2b
 2116 47d7 6F6E6578 		.ascii "onexit_t _onexit_t\0"
 2116      69745F74 
 2116      205F6F6E 
 2116      65786974 
 2116      5F7400
 2117 47ea 01       		.byte	0x1
 2118 47eb 30       		.uleb128 0x30
 2119 47ec 5F444956 		.ascii "_DIV_T_DEFINED \0"
 2119      5F545F44 
 2119      4546494E 
 2119      45442000 
 2120 47fc 01       		.byte	0x1
 2121 47fd 3E       		.uleb128 0x3e
 2122 47fe 5F435254 		.ascii "_CRT_DOUBLE_DEC \0"
 2122      5F444F55 
 2122      424C455F 
 2122      44454320 
 2122      00
 2123 480f 01       		.byte	0x1
 2124 4810 46       		.uleb128 0x46
 2125 4811 5F505452 		.ascii "_PTR_LD(x) ((unsigned char *)(&(x)->ld))\0"
 2125      5F4C4428 
 2125      78292028 
 2125      28756E73 
 2125      69676E65 
 2126 483a 02       		.byte	0x2
 2127 483b 51       		.uleb128 0x51
 2128 483c 6C6F6E67 		.ascii "long\0"
 2128      00
 2129 4841 01       		.byte	0x1
 2130 4842 60       		.uleb128 0x60
 2131 4843 52414E44 		.ascii "RAND_MAX 0x7fff\0"
 2131      5F4D4158 
 2131      20307837 
 2131      66666600 
 2132 4853 01       		.byte	0x1
 2133 4854 63       		.uleb128 0x63
GAS LISTING c:\tmp\ccNEBtDk.s 			page 77


 2134 4855 4D425F43 		.ascii "MB_CUR_MAX ___mb_cur_max_func()\0"
 2134      55525F4D 
 2134      4158205F 
 2134      5F5F6D62 
 2134      5F637572 
 2135 4875 01       		.byte	0x1
 2136 4876 6A       		.uleb128 0x6a
 2137 4877 5F5F6D62 		.ascii "__mb_cur_max (* __MINGW_IMP_SYMBOL(__mb_cur_max))\0"
 2137      5F637572 
 2137      5F6D6178 
 2137      20282A20 
 2137      5F5F4D49 
 2138 48a9 01       		.byte	0x1
 2139 48aa 6D       		.uleb128 0x6d
 2140 48ab 5F5F5F6D 		.ascii "___mb_cur_max_func() (__mb_cur_max)\0"
 2140      625F6375 
 2140      725F6D61 
 2140      785F6675 
 2140      6E632829 
 2141 48cf 01       		.byte	0x1
 2142 48d0 70       		.uleb128 0x70
 2143 48d1 5F5F6D61 		.ascii "__max(a,b) (((a) > (b)) ? (a) : (b))\0"
 2143      7828612C 
 2143      62292028 
 2143      28286129 
 2143      203E2028 
 2144 48f6 01       		.byte	0x1
 2145 48f7 71       		.uleb128 0x71
 2146 48f8 5F5F6D69 		.ascii "__min(a,b) (((a) < (b)) ? (a) : (b))\0"
 2146      6E28612C 
 2146      62292028 
 2146      28286129 
 2146      203C2028 
 2147 491d 01       		.byte	0x1
 2148 491e 73       		.uleb128 0x73
 2149 491f 5F4D4158 		.ascii "_MAX_PATH 260\0"
 2149      5F504154 
 2149      48203236 
 2149      3000
 2150 492d 01       		.byte	0x1
 2151 492e 74       		.uleb128 0x74
 2152 492f 5F4D4158 		.ascii "_MAX_DRIVE 3\0"
 2152      5F445249 
 2152      56452033 
 2152      00
 2153 493c 01       		.byte	0x1
 2154 493d 75       		.uleb128 0x75
 2155 493e 5F4D4158 		.ascii "_MAX_DIR 256\0"
 2155      5F444952 
 2155      20323536 
 2155      00
 2156 494b 01       		.byte	0x1
 2157 494c 76       		.uleb128 0x76
 2158 494d 5F4D4158 		.ascii "_MAX_FNAME 256\0"
 2158      5F464E41 
 2158      4D452032 
 2158      353600
GAS LISTING c:\tmp\ccNEBtDk.s 			page 78


 2159 495c 01       		.byte	0x1
 2160 495d 77       		.uleb128 0x77
 2161 495e 5F4D4158 		.ascii "_MAX_EXT 256\0"
 2161      5F455854 
 2161      20323536 
 2161      00
 2162 496b 01       		.byte	0x1
 2163 496c 79       		.uleb128 0x79
 2164 496d 5F4F5554 		.ascii "_OUT_TO_DEFAULT 0\0"
 2164      5F544F5F 
 2164      44454641 
 2164      554C5420 
 2164      3000
 2165 497f 01       		.byte	0x1
 2166 4980 7A       		.uleb128 0x7a
 2167 4981 5F4F5554 		.ascii "_OUT_TO_STDERR 1\0"
 2167      5F544F5F 
 2167      53544445 
 2167      52522031 
 2167      00
 2168 4992 01       		.byte	0x1
 2169 4993 7B       		.uleb128 0x7b
 2170 4994 5F4F5554 		.ascii "_OUT_TO_MSGBOX 2\0"
 2170      5F544F5F 
 2170      4D534742 
 2170      4F582032 
 2170      00
 2171 49a5 01       		.byte	0x1
 2172 49a6 7C       		.uleb128 0x7c
 2173 49a7 5F524550 		.ascii "_REPORT_ERRMODE 3\0"
 2173      4F52545F 
 2173      4552524D 
 2173      4F444520 
 2173      3300
 2174 49b9 01       		.byte	0x1
 2175 49ba 7E       		.uleb128 0x7e
 2176 49bb 5F575249 		.ascii "_WRITE_ABORT_MSG 0x1\0"
 2176      54455F41 
 2176      424F5254 
 2176      5F4D5347 
 2176      20307831 
 2177 49d0 01       		.byte	0x1
 2178 49d1 7F       		.uleb128 0x7f
 2179 49d2 5F43414C 		.ascii "_CALL_REPORTFAULT 0x2\0"
 2179      4C5F5245 
 2179      504F5254 
 2179      4641554C 
 2179      54203078 
 2180 49e8 01       		.byte	0x1
 2181 49e9 8101     		.uleb128 0x81
 2182 49eb 5F4D4158 		.ascii "_MAX_ENV 32767\0"
 2182      5F454E56 
 2182      20333237 
 2182      363700
 2183 49fa 01       		.byte	0x1
 2184 49fb 8D01     		.uleb128 0x8d
 2185 49fd 5F435254 		.ascii "_CRT_ERRNO_DEFINED \0"
GAS LISTING c:\tmp\ccNEBtDk.s 			page 79


 2185      5F455252 
 2185      4E4F5F44 
 2185      4546494E 
 2185      45442000 
 2186 4a11 01       		.byte	0x1
 2187 4a12 8F01     		.uleb128 0x8f
 2188 4a14 6572726E 		.ascii "errno (*_errno())\0"
 2188      6F20282A 
 2188      5F657272 
 2188      6E6F2829 
 2188      2900
 2189 4a26 01       		.byte	0x1
 2190 4a27 9401     		.uleb128 0x94
 2191 4a29 5F646F73 		.ascii "_doserrno (*__doserrno())\0"
 2191      6572726E 
 2191      6F20282A 
 2191      5F5F646F 
 2191      73657272 
 2192 4a43 01       		.byte	0x1
 2193 4a44 AC01     		.uleb128 0xac
 2194 4a46 5F5F6172 		.ascii "__argc (* __MINGW_IMP_SYMBOL(__argc))\0"
 2194      67632028 
 2194      2A205F5F 
 2194      4D494E47 
 2194      575F494D 
 2195 4a6c 01       		.byte	0x1
 2196 4a6d B401     		.uleb128 0xb4
 2197 4a6f 5F5F6172 		.ascii "__argv (* __MINGW_IMP_SYMBOL(__argv))\0"
 2197      67762028 
 2197      2A205F5F 
 2197      4D494E47 
 2197      575F494D 
 2198 4a95 01       		.byte	0x1
 2199 4a96 BC01     		.uleb128 0xbc
 2200 4a98 5F5F7761 		.ascii "__wargv (* __MINGW_IMP_SYMBOL(__wargv))\0"
 2200      72677620 
 2200      282A205F 
 2200      5F4D494E 
 2200      47575F49 
 2201 4ac0 01       		.byte	0x1
 2202 4ac1 C801     		.uleb128 0xc8
 2203 4ac3 5F656E76 		.ascii "_environ (* __MINGW_IMP_SYMBOL(_environ))\0"
 2203      69726F6E 
 2203      20282A20 
 2203      5F5F4D49 
 2203      4E47575F 
 2204 4aed 01       		.byte	0x1
 2205 4aee D101     		.uleb128 0xd1
 2206 4af0 5F77656E 		.ascii "_wenviron (* __MINGW_IMP_SYMBOL(_wenviron))\0"
 2206      7669726F 
 2206      6E20282A 
 2206      205F5F4D 
 2206      494E4757 
 2207 4b1c 01       		.byte	0x1
 2208 4b1d DA01     		.uleb128 0xda
 2209 4b1f 5F70676D 		.ascii "_pgmptr (* __MINGW_IMP_SYMBOL(_pgmptr))\0"
 2209      70747220 
GAS LISTING c:\tmp\ccNEBtDk.s 			page 80


 2209      282A205F 
 2209      5F4D494E 
 2209      47575F49 
 2210 4b47 01       		.byte	0x1
 2211 4b48 E301     		.uleb128 0xe3
 2212 4b4a 5F777067 		.ascii "_wpgmptr (* __MINGW_IMP_SYMBOL(_wpgmptr))\0"
 2212      6D707472 
 2212      20282A20 
 2212      5F5F4D49 
 2212      4E47575F 
 2213 4b74 01       		.byte	0x1
 2214 4b75 ED01     		.uleb128 0xed
 2215 4b77 5F666D6F 		.ascii "_fmode (* __MINGW_IMP_SYMBOL(_fmode))\0"
 2215      64652028 
 2215      2A205F5F 
 2215      4D494E47 
 2215      575F494D 
 2216 4b9d 01       		.byte	0x1
 2217 4b9e F801     		.uleb128 0xf8
 2218 4ba0 5F6F7370 		.ascii "_osplatform (* __MINGW_IMP_SYMBOL(_osplatform))\0"
 2218      6C617466 
 2218      6F726D20 
 2218      282A205F 
 2218      5F4D494E 
 2219 4bd0 01       		.byte	0x1
 2220 4bd1 8102     		.uleb128 0x101
 2221 4bd3 5F6F7376 		.ascii "_osver (* __MINGW_IMP_SYMBOL(_osver))\0"
 2221      65722028 
 2221      2A205F5F 
 2221      4D494E47 
 2221      575F494D 
 2222 4bf9 01       		.byte	0x1
 2223 4bfa 8A02     		.uleb128 0x10a
 2224 4bfc 5F77696E 		.ascii "_winver (* __MINGW_IMP_SYMBOL(_winver))\0"
 2224      76657220 
 2224      282A205F 
 2224      5F4D494E 
 2224      47575F49 
 2225 4c24 01       		.byte	0x1
 2226 4c25 9302     		.uleb128 0x113
 2227 4c27 5F77696E 		.ascii "_winmajor (* __MINGW_IMP_SYMBOL(_winmajor))\0"
 2227      6D616A6F 
 2227      7220282A 
 2227      205F5F4D 
 2227      494E4757 
 2228 4c53 01       		.byte	0x1
 2229 4c54 9C02     		.uleb128 0x11c
 2230 4c56 5F77696E 		.ascii "_winminor (* __MINGW_IMP_SYMBOL(_winminor))\0"
 2230      6D696E6F 
 2230      7220282A 
 2230      205F5F4D 
 2230      494E4757 
 2231 4c82 01       		.byte	0x1
 2232 4c83 A702     		.uleb128 0x127
 2233 4c85 5F636F75 		.ascii "_countof(_Array) (sizeof(_Array) / sizeof(_Array[0]))\0"
 2233      6E746F66 
 2233      285F4172 
GAS LISTING c:\tmp\ccNEBtDk.s 			page 81


 2233      72617929 
 2233      20287369 
 2234 4cbb 01       		.byte	0x1
 2235 4cbc B102     		.uleb128 0x131
 2236 4cbe 5F435254 		.ascii "_CRT_TERMINATE_DEFINED \0"
 2236      5F544552 
 2236      4D494E41 
 2236      54455F44 
 2236      4546494E 
 2237 4cd6 02       		.byte	0x2
 2238 4cd7 BF02     		.uleb128 0x13f
 2239 4cd9 61626F72 		.ascii "abort\0"
 2239      7400
 2240 4cdf 01       		.byte	0x1
 2241 4ce0 C802     		.uleb128 0x148
 2242 4ce2 5F435254 		.ascii "_CRT_ABS_DEFINED \0"
 2242      5F414253 
 2242      5F444546 
 2242      494E4544 
 2242      2000
 2243 4cf4 01       		.byte	0x1
 2244 4cf5 D602     		.uleb128 0x156
 2245 4cf7 5F435254 		.ascii "_CRT_ATOF_DEFINED \0"
 2245      5F41544F 
 2245      465F4445 
 2245      46494E45 
 2245      442000
 2246 4d0a 01       		.byte	0x1
 2247 4d0b DF02     		.uleb128 0x15f
 2248 4d0d 5F435254 		.ascii "_CRT_ALGO_DEFINED \0"
 2248      5F414C47 
 2248      4F5F4445 
 2248      46494E45 
 2248      442000
 2249 4d20 01       		.byte	0x1
 2250 4d21 9C03     		.uleb128 0x19c
 2251 4d23 73747274 		.ascii "strtod __strtod\0"
 2251      6F64205F 
 2251      5F737472 
 2251      746F6400 
 2252 4d33 01       		.byte	0x1
 2253 4d34 AA03     		.uleb128 0x1aa
 2254 4d36 5F435254 		.ascii "_CRT_SYSTEM_DEFINED \0"
 2254      5F535953 
 2254      54454D5F 
 2254      44454649 
 2254      4E454420 
 2255 4d4b 01       		.byte	0x1
 2256 4d4c B403     		.uleb128 0x1b4
 2257 4d4e 5F435254 		.ascii "_CRT_ALLOCATION_DEFINED \0"
 2257      5F414C4C 
 2257      4F434154 
 2257      494F4E5F 
 2257      44454649 
 2258 4d67 02       		.byte	0x2
 2259 4d68 BE03     		.uleb128 0x1be
 2260 4d6a 5F616C69 		.ascii "_aligned_free\0"
GAS LISTING c:\tmp\ccNEBtDk.s 			page 82


 2260      676E6564 
 2260      5F667265 
 2260      6500
 2261 4d78 02       		.byte	0x2
 2262 4d79 BF03     		.uleb128 0x1bf
 2263 4d7b 5F616C69 		.ascii "_aligned_malloc\0"
 2263      676E6564 
 2263      5F6D616C 
 2263      6C6F6300 
 2264 4d8b 01       		.byte	0x1
 2265 4d8c CD03     		.uleb128 0x1cd
 2266 4d8e 5F575354 		.ascii "_WSTDLIB_DEFINED \0"
 2266      444C4942 
 2266      5F444546 
 2266      494E4544 
 2266      2000
 2267 4da0 01       		.byte	0x1
 2268 4da1 EF03     		.uleb128 0x1ef
 2269 4da3 5F435254 		.ascii "_CRT_WSYSTEM_DEFINED \0"
 2269      5F575359 
 2269      5354454D 
 2269      5F444546 
 2269      494E4544 
 2270 4db9 01       		.byte	0x1
 2271 4dba 8404     		.uleb128 0x204
 2272 4dbc 5F435654 		.ascii "_CVTBUFSIZE (309+40)\0"
 2272      42554653 
 2272      495A4520 
 2272      28333039 
 2272      2B343029 
 2273 4dd1 02       		.byte	0x2
 2274 4dd2 9104     		.uleb128 0x211
 2275 4dd4 5F6C726F 		.ascii "_lrotr\0"
 2275      747200
 2276 4ddb 02       		.byte	0x2
 2277 4ddc 9204     		.uleb128 0x212
 2278 4dde 5F6C726F 		.ascii "_lrotl\0"
 2278      746C00
 2279 4de5 01       		.byte	0x1
 2280 4de6 A104     		.uleb128 0x221
 2281 4de8 5F435254 		.ascii "_CRT_PERROR_DEFINED \0"
 2281      5F504552 
 2281      524F525F 
 2281      44454649 
 2281      4E454420 
 2282 4dfd 02       		.byte	0x2
 2283 4dfe A704     		.uleb128 0x227
 2284 4e00 5F726F74 		.ascii "_rotl64\0"
 2284      6C363400 
 2285 4e08 02       		.byte	0x2
 2286 4e09 A804     		.uleb128 0x228
 2287 4e0b 5F726F74 		.ascii "_rotr64\0"
 2287      72363400 
 2288 4e13 02       		.byte	0x2
 2289 4e14 AF04     		.uleb128 0x22f
 2290 4e16 5F726F74 		.ascii "_rotr\0"
 2290      7200
GAS LISTING c:\tmp\ccNEBtDk.s 			page 83


 2291 4e1c 02       		.byte	0x2
 2292 4e1d B004     		.uleb128 0x230
 2293 4e1f 5F726F74 		.ascii "_rotl\0"
 2293      6C00
 2294 4e25 01       		.byte	0x1
 2295 4e26 BB04     		.uleb128 0x23b
 2296 4e28 5F575354 		.ascii "_WSTDLIBP_DEFINED \0"
 2296      444C4942 
 2296      505F4445 
 2296      46494E45 
 2296      442000
 2297 4e3b 01       		.byte	0x1
 2298 4e3c BF04     		.uleb128 0x23f
 2299 4e3e 5F435254 		.ascii "_CRT_WPERROR_DEFINED \0"
 2299      5F575045 
 2299      52524F52 
 2299      5F444546 
 2299      494E4544 
 2300 4e54 01       		.byte	0x1
 2301 4e55 DC04     		.uleb128 0x25c
 2302 4e57 7379735F 		.ascii "sys_errlist _sys_errlist\0"
 2302      6572726C 
 2302      69737420 
 2302      5F737973 
 2302      5F657272 
 2303 4e70 01       		.byte	0x1
 2304 4e71 DD04     		.uleb128 0x25d
 2305 4e73 7379735F 		.ascii "sys_nerr _sys_nerr\0"
 2305      6E657272 
 2305      205F7379 
 2305      735F6E65 
 2305      727200
 2306 4e86 01       		.byte	0x1
 2307 4e87 DE04     		.uleb128 0x25e
 2308 4e89 656E7669 		.ascii "environ _environ\0"
 2308      726F6E20 
 2308      5F656E76 
 2308      69726F6E 
 2308      00
 2309 4e9a 01       		.byte	0x1
 2310 4e9b E704     		.uleb128 0x267
 2311 4e9d 5F435254 		.ascii "_CRT_SWAB_DEFINED \0"
 2311      5F535741 
 2311      425F4445 
 2311      46494E45 
 2311      442000
 2312              		.file 11 "c:/programfiles/octave/octave-4.0.3/include/sec_api/stdlib_s.h"
 2313 4eb0 03       		.byte	0x3
 2314 4eb1 9B05     		.uleb128 0x29b
 2315 4eb3 0B       		.uleb128 0xb
 2316 4eb4 01       		.byte	0x1
 2317 4eb5 07       		.uleb128 0x7
 2318 4eb6 5F494E43 		.ascii "_INC_STDLIB_S \0"
 2318      5F535444 
 2318      4C49425F 
 2318      532000
 2319 4ec5 03       		.byte	0x3
GAS LISTING c:\tmp\ccNEBtDk.s 			page 84


 2320 4ec6 09       		.uleb128 0x9
 2321 4ec7 02       		.uleb128 0x2
 2322 4ec8 04       		.byte	0x4
 2323 4ec9 04       		.byte	0x4
 2324              		.file 12 "c:/programfiles/octave/octave-4.0.3/include/malloc.h"
 2325 4eca 03       		.byte	0x3
 2326 4ecb 9C05     		.uleb128 0x29c
 2327 4ecd 0C       		.uleb128 0xc
 2328 4ece 01       		.byte	0x1
 2329 4ecf 07       		.uleb128 0x7
 2330 4ed0 5F4D414C 		.ascii "_MALLOC_H_ \0"
 2330      4C4F435F 
 2330      485F2000 
 2331 4edc 01       		.byte	0x1
 2332 4edd 14       		.uleb128 0x14
 2333 4ede 5F484541 		.ascii "_HEAP_MAXREQ 0xFFFFFFE0\0"
 2333      505F4D41 
 2333      58524551 
 2333      20307846 
 2333      46464646 
 2334 4ef6 01       		.byte	0x1
 2335 4ef7 1B       		.uleb128 0x1b
 2336 4ef8 5F535441 		.ascii "_STATIC_ASSERT(expr) extern void __static_assert_t(int [(expr)?1:-1])\0"
 2336      5449435F 
 2336      41535345 
 2336      52542865 
 2336      78707229 
 2337 4f3e 01       		.byte	0x1
 2338 4f3f 20       		.uleb128 0x20
 2339 4f40 5F484541 		.ascii "_HEAPEMPTY (-1)\0"
 2339      50454D50 
 2339      54592028 
 2339      2D312900 
 2340 4f50 01       		.byte	0x1
 2341 4f51 21       		.uleb128 0x21
 2342 4f52 5F484541 		.ascii "_HEAPOK (-2)\0"
 2342      504F4B20 
 2342      282D3229 
 2342      00
 2343 4f5f 01       		.byte	0x1
 2344 4f60 22       		.uleb128 0x22
 2345 4f61 5F484541 		.ascii "_HEAPBADBEGIN (-3)\0"
 2345      50424144 
 2345      42454749 
 2345      4E20282D 
 2345      332900
 2346 4f74 01       		.byte	0x1
 2347 4f75 23       		.uleb128 0x23
 2348 4f76 5F484541 		.ascii "_HEAPBADNODE (-4)\0"
 2348      50424144 
 2348      4E4F4445 
 2348      20282D34 
 2348      2900
 2349 4f88 01       		.byte	0x1
 2350 4f89 24       		.uleb128 0x24
 2351 4f8a 5F484541 		.ascii "_HEAPEND (-5)\0"
 2351      50454E44 
GAS LISTING c:\tmp\ccNEBtDk.s 			page 85


 2351      20282D35 
 2351      2900
 2352 4f98 01       		.byte	0x1
 2353 4f99 25       		.uleb128 0x25
 2354 4f9a 5F484541 		.ascii "_HEAPBADPTR (-6)\0"
 2354      50424144 
 2354      50545220 
 2354      282D3629 
 2354      00
 2355 4fab 01       		.byte	0x1
 2356 4fac 28       		.uleb128 0x28
 2357 4fad 5F465245 		.ascii "_FREEENTRY 0\0"
 2357      45454E54 
 2357      52592030 
 2357      00
 2358 4fba 01       		.byte	0x1
 2359 4fbb 29       		.uleb128 0x29
 2360 4fbc 5F555345 		.ascii "_USEDENTRY 1\0"
 2360      44454E54 
 2360      52592031 
 2360      00
 2361 4fc9 01       		.byte	0x1
 2362 4fca 2C       		.uleb128 0x2c
 2363 4fcb 5F484541 		.ascii "_HEAPINFO_DEFINED \0"
 2363      50494E46 
 2363      4F5F4445 
 2363      46494E45 
 2363      442000
 2364 4fde 01       		.byte	0x1
 2365 4fdf 39       		.uleb128 0x39
 2366 4fe0 5F5F444F 		.ascii "__DO_ALIGN_DEFINES \0"
 2366      5F414C49 
 2366      474E5F44 
 2366      4546494E 
 2366      45532000 
 2367 4ff4 01       		.byte	0x1
 2368 4ff5 3D       		.uleb128 0x3d
 2369 4ff6 5F4D4D5F 		.ascii "_MM_MALLOC_H_INCLUDED \0"
 2369      4D414C4C 
 2369      4F435F48 
 2369      5F494E43 
 2369      4C554445 
 2370 500d 02       		.byte	0x2
 2371 500e 43       		.uleb128 0x43
 2372 500f 5F616C69 		.ascii "_aligned_free\0"
 2372      676E6564 
 2372      5F667265 
 2372      6500
 2373 501d 02       		.byte	0x2
 2374 501e 44       		.uleb128 0x44
 2375 501f 5F616C69 		.ascii "_aligned_malloc\0"
 2375      676E6564 
 2375      5F6D616C 
 2375      6C6F6300 
 2376 502f 01       		.byte	0x1
 2377 5030 47       		.uleb128 0x47
 2378 5031 5F6D6D5F 		.ascii "_mm_free(a) _aligned_free(a)\0"
GAS LISTING c:\tmp\ccNEBtDk.s 			page 86


 2378      66726565 
 2378      28612920 
 2378      5F616C69 
 2378      676E6564 
 2379 504e 01       		.byte	0x1
 2380 504f 48       		.uleb128 0x48
 2381 5050 5F6D6D5F 		.ascii "_mm_malloc(a,b) _aligned_malloc(a,b)\0"
 2381      6D616C6C 
 2381      6F632861 
 2381      2C622920 
 2381      5F616C69 
 2382 5075 02       		.byte	0x2
 2383 5076 5F       		.uleb128 0x5f
 2384 5077 5F5F444F 		.ascii "__DO_ALIGN_DEFINES\0"
 2384      5F414C49 
 2384      474E5F44 
 2384      4546494E 
 2384      455300
 2385 508a 01       		.byte	0x1
 2386 508b 6C       		.uleb128 0x6c
 2387 508c 5F4D4158 		.ascii "_MAX_WAIT_MALLOC_CRT 60000\0"
 2387      5F574149 
 2387      545F4D41 
 2387      4C4C4F43 
 2387      5F435254 
 2388 50a7 02       		.byte	0x2
 2389 50a8 74       		.uleb128 0x74
 2390 50a9 5F616C6C 		.ascii "_alloca\0"
 2390      6F636100 
 2391 50b1 01       		.byte	0x1
 2392 50b2 75       		.uleb128 0x75
 2393 50b3 5F616C6C 		.ascii "_alloca(x) __builtin_alloca((x))\0"
 2393      6F636128 
 2393      7829205F 
 2393      5F627569 
 2393      6C74696E 
 2394 50d4 01       		.byte	0x1
 2395 50d5 8501     		.uleb128 0x85
 2396 50d7 5F414C4C 		.ascii "_ALLOCA_S_THRESHOLD 1024\0"
 2396      4F43415F 
 2396      535F5448 
 2396      52455348 
 2396      4F4C4420 
 2397 50f0 01       		.byte	0x1
 2398 50f1 8601     		.uleb128 0x86
 2399 50f3 5F414C4C 		.ascii "_ALLOCA_S_STACK_MARKER 0xCCCC\0"
 2399      4F43415F 
 2399      535F5354 
 2399      41434B5F 
 2399      4D41524B 
 2400 5111 01       		.byte	0x1
 2401 5112 8701     		.uleb128 0x87
 2402 5114 5F414C4C 		.ascii "_ALLOCA_S_HEAP_MARKER 0xDDDD\0"
 2402      4F43415F 
 2402      535F4845 
 2402      41505F4D 
 2402      41524B45 
GAS LISTING c:\tmp\ccNEBtDk.s 			page 87


 2403 5131 01       		.byte	0x1
 2404 5132 8A01     		.uleb128 0x8a
 2405 5134 5F414C4C 		.ascii "_ALLOCA_S_MARKER_SIZE 8\0"
 2405      4F43415F 
 2405      535F4D41 
 2405      524B4552 
 2405      5F53495A 
 2406 514c 02       		.byte	0x2
 2407 514d 9901     		.uleb128 0x99
 2408 514f 5F6D616C 		.ascii "_malloca\0"
 2408      6C6F6361 
 2408      00
 2409 5158 01       		.byte	0x1
 2410 5159 9A01     		.uleb128 0x9a
 2411 515b 5F6D616C 		.ascii "_malloca(size) ((((size) + _ALLOCA_S_MARKER_SIZE) <= _ALLOCA_S_THRESHOLD) ? _MarkAllocaS(_
 2411      6C6F6361 
 2411      2873697A 
 2411      65292028 
 2411      28282873 
 2412 5242 02       		.byte	0x2
 2413 5243 9E01     		.uleb128 0x9e
 2414 5245 5F465245 		.ascii "_FREEA_INLINE\0"
 2414      45415F49 
 2414      4E4C494E 
 2414      4500
 2415 5253 01       		.byte	0x1
 2416 5254 9F01     		.uleb128 0x9f
 2417 5256 5F465245 		.ascii "_FREEA_INLINE \0"
 2417      45415F49 
 2417      4E4C494E 
 2417      452000
 2418 5265 02       		.byte	0x2
 2419 5266 A201     		.uleb128 0xa2
 2420 5268 5F667265 		.ascii "_freea\0"
 2420      656100
 2421 526f 02       		.byte	0x2
 2422 5270 B501     		.uleb128 0xb5
 2423 5272 616C6C6F 		.ascii "alloca\0"
 2423      636100
 2424 5279 01       		.byte	0x1
 2425 527a B701     		.uleb128 0xb7
 2426 527c 616C6C6F 		.ascii "alloca(x) __builtin_alloca((x))\0"
 2426      63612878 
 2426      29205F5F 
 2426      6275696C 
 2426      74696E5F 
 2427 529c 04       		.byte	0x4
 2428 529d 04       		.byte	0x4
 2429              		.file 13 "c:/programfiles/octave/octave-4.0.3/include/stdio.h"
 2430 529e 03       		.byte	0x3
 2431 529f 1F       		.uleb128 0x1f
 2432 52a0 0D       		.uleb128 0xd
 2433 52a1 01       		.byte	0x1
 2434 52a2 07       		.uleb128 0x7
 2435 52a3 5F494E43 		.ascii "_INC_STDIO \0"
 2435      5F535444 
 2435      494F2000 
GAS LISTING c:\tmp\ccNEBtDk.s 			page 88


 2436              		.file 14 "c:/programfiles/octave/octave-4.0.3/include/_mingw_print_push.h"
 2437 52af 03       		.byte	0x3
 2438 52b0 0B       		.uleb128 0xb
 2439 52b1 0E       		.uleb128 0xe
 2440 52b2 04       		.byte	0x4
 2441 52b3 01       		.byte	0x1
 2442 52b4 13       		.uleb128 0x13
 2443 52b5 42554653 		.ascii "BUFSIZ 512\0"
 2443      495A2035 
 2443      313200
 2444 52c0 01       		.byte	0x1
 2445 52c1 14       		.uleb128 0x14
 2446 52c2 5F4E4649 		.ascii "_NFILE _NSTREAM_\0"
 2446      4C45205F 
 2446      4E535452 
 2446      45414D5F 
 2446      00
 2447 52d3 01       		.byte	0x1
 2448 52d4 15       		.uleb128 0x15
 2449 52d5 5F4E5354 		.ascii "_NSTREAM_ 512\0"
 2449      5245414D 
 2449      5F203531 
 2449      3200
 2450 52e3 01       		.byte	0x1
 2451 52e4 16       		.uleb128 0x16
 2452 52e5 5F494F42 		.ascii "_IOB_ENTRIES 20\0"
 2452      5F454E54 
 2452      52494553 
 2452      20323000 
 2453 52f5 01       		.byte	0x1
 2454 52f6 17       		.uleb128 0x17
 2455 52f7 454F4620 		.ascii "EOF (-1)\0"
 2455      282D3129 
 2455      00
 2456 5300 01       		.byte	0x1
 2457 5301 25       		.uleb128 0x25
 2458 5302 5F46494C 		.ascii "_FILE_DEFINED \0"
 2458      455F4445 
 2458      46494E45 
 2458      442000
 2459 5311 01       		.byte	0x1
 2460 5312 2C       		.uleb128 0x2c
 2461 5313 5F505F74 		.ascii "_P_tmpdir \"\\\\\"\0"
 2461      6D706469 
 2461      7220225C 
 2461      5C2200
 2462 5322 01       		.byte	0x1
 2463 5323 2D       		.uleb128 0x2d
 2464 5324 5F77505F 		.ascii "_wP_tmpdir L\"\\\\\"\0"
 2464      746D7064 
 2464      6972204C 
 2464      225C5C22 
 2464      00
 2465 5335 01       		.byte	0x1
 2466 5336 30       		.uleb128 0x30
 2467 5337 4C5F746D 		.ascii "L_tmpnam (sizeof(_P_tmpdir) + 12)\0"
 2467      706E616D 
GAS LISTING c:\tmp\ccNEBtDk.s 			page 89


 2467      20287369 
 2467      7A656F66 
 2467      285F505F 
 2468 5359 01       		.byte	0x1
 2469 535a 37       		.uleb128 0x37
 2470 535b 5345454B 		.ascii "SEEK_CUR 1\0"
 2470      5F435552 
 2470      203100
 2471 5366 01       		.byte	0x1
 2472 5367 38       		.uleb128 0x38
 2473 5368 5345454B 		.ascii "SEEK_END 2\0"
 2473      5F454E44 
 2473      203200
 2474 5373 01       		.byte	0x1
 2475 5374 39       		.uleb128 0x39
 2476 5375 5345454B 		.ascii "SEEK_SET 0\0"
 2476      5F534554 
 2476      203000
 2477 5380 01       		.byte	0x1
 2478 5381 3B       		.uleb128 0x3b
 2479 5382 53544449 		.ascii "STDIN_FILENO 0\0"
 2479      4E5F4649 
 2479      4C454E4F 
 2479      203000
 2480 5391 01       		.byte	0x1
 2481 5392 3C       		.uleb128 0x3c
 2482 5393 5354444F 		.ascii "STDOUT_FILENO 1\0"
 2482      55545F46 
 2482      494C454E 
 2482      4F203100 
 2483 53a3 01       		.byte	0x1
 2484 53a4 3D       		.uleb128 0x3d
 2485 53a5 53544445 		.ascii "STDERR_FILENO 2\0"
 2485      52525F46 
 2485      494C454E 
 2485      4F203200 
 2486 53b5 01       		.byte	0x1
 2487 53b6 3F       		.uleb128 0x3f
 2488 53b7 46494C45 		.ascii "FILENAME_MAX 260\0"
 2488      4E414D45 
 2488      5F4D4158 
 2488      20323630 
 2488      00
 2489 53c8 01       		.byte	0x1
 2490 53c9 40       		.uleb128 0x40
 2491 53ca 464F5045 		.ascii "FOPEN_MAX 20\0"
 2491      4E5F4D41 
 2491      58203230 
 2491      00
 2492 53d7 01       		.byte	0x1
 2493 53d8 41       		.uleb128 0x41
 2494 53d9 5F535953 		.ascii "_SYS_OPEN 20\0"
 2494      5F4F5045 
 2494      4E203230 
 2494      00
 2495 53e6 01       		.byte	0x1
 2496 53e7 42       		.uleb128 0x42
GAS LISTING c:\tmp\ccNEBtDk.s 			page 90


 2497 53e8 544D505F 		.ascii "TMP_MAX 32767\0"
 2497      4D415820 
 2497      33323736 
 2497      3700
 2498              		.file 15 "c:/programfiles/octave/octave-4.0.3/include/_mingw_off_t.h"
 2499 53f6 03       		.byte	0x3
 2500 53f7 50       		.uleb128 0x50
 2501 53f8 0F       		.uleb128 0xf
 2502 53f9 01       		.byte	0x1
 2503 53fa 02       		.uleb128 0x2
 2504 53fb 5F4F4646 		.ascii "_OFF_T_DEFINED \0"
 2504      5F545F44 
 2504      4546494E 
 2504      45442000 
 2505 540b 01       		.byte	0x1
 2506 540c 04       		.uleb128 0x4
 2507 540d 5F4F4646 		.ascii "_OFF_T_ \0"
 2507      5F545F20 
 2507      00
 2508 5416 01       		.byte	0x1
 2509 5417 0C       		.uleb128 0xc
 2510 5418 5F4F4646 		.ascii "_OFF64_T_DEFINED \0"
 2510      36345F54 
 2510      5F444546 
 2510      494E4544 
 2510      2000
 2511 542a 01       		.byte	0x1
 2512 542b 15       		.uleb128 0x15
 2513 542c 5F46494C 		.ascii "_FILE_OFFSET_BITS_SET_OFFT \0"
 2513      455F4F46 
 2513      46534554 
 2513      5F424954 
 2513      535F5345 
 2514 5448 04       		.byte	0x4
 2515 5449 01       		.byte	0x1
 2516 544a 5C       		.uleb128 0x5c
 2517 544b 5F5F696F 		.ascii "__iob_func() (* __MINGW_IMP_SYMBOL(_iob))\0"
 2517      625F6675 
 2517      6E632829 
 2517      20282A20 
 2517      5F5F4D49 
 2518 5475 01       		.byte	0x1
 2519 5476 5D       		.uleb128 0x5d
 2520 5477 5F696F62 		.ascii "_iob __iob_func()\0"
 2520      205F5F69 
 2520      6F625F66 
 2520      756E6328 
 2520      2900
 2521 5489 01       		.byte	0x1
 2522 548a 63       		.uleb128 0x63
 2523 548b 5F46504F 		.ascii "_FPOS_T_DEFINED \0"
 2523      535F545F 
 2523      44454649 
 2523      4E454420 
 2523      00
 2524 549c 02       		.byte	0x2
 2525 549d 64       		.uleb128 0x64
GAS LISTING c:\tmp\ccNEBtDk.s 			page 91


 2526 549e 5F46504F 		.ascii "_FPOSOFF\0"
 2526      534F4646 
 2526      00
 2527 54a7 01       		.byte	0x1
 2528 54a8 68       		.uleb128 0x68
 2529 54a9 5F46504F 		.ascii "_FPOSOFF(fp) ((long)(fp))\0"
 2529      534F4646 
 2529      28667029 
 2529      2028286C 
 2529      6F6E6729 
 2530 54c3 01       		.byte	0x1
 2531 54c4 71       		.uleb128 0x71
 2532 54c5 5F535444 		.ascii "_STDSTREAM_DEFINED \0"
 2532      53545245 
 2532      414D5F44 
 2532      4546494E 
 2532      45442000 
 2533 54d9 01       		.byte	0x1
 2534 54da 73       		.uleb128 0x73
 2535 54db 73746469 		.ascii "stdin (&__iob_func()[0])\0"
 2535      6E202826 
 2535      5F5F696F 
 2535      625F6675 
 2535      6E632829 
 2536 54f4 01       		.byte	0x1
 2537 54f5 74       		.uleb128 0x74
 2538 54f6 7374646F 		.ascii "stdout (&__iob_func()[1])\0"
 2538      75742028 
 2538      265F5F69 
 2538      6F625F66 
 2538      756E6328 
 2539 5510 01       		.byte	0x1
 2540 5511 75       		.uleb128 0x75
 2541 5512 73746465 		.ascii "stderr (&__iob_func()[2])\0"
 2541      72722028 
 2541      265F5F69 
 2541      6F625F66 
 2541      756E6328 
 2542 552c 01       		.byte	0x1
 2543 552d 78       		.uleb128 0x78
 2544 552e 5F494F52 		.ascii "_IOREAD 0x0001\0"
 2544      45414420 
 2544      30783030 
 2544      303100
 2545 553d 01       		.byte	0x1
 2546 553e 79       		.uleb128 0x79
 2547 553f 5F494F57 		.ascii "_IOWRT 0x0002\0"
 2547      52542030 
 2547      78303030 
 2547      3200
 2548 554d 01       		.byte	0x1
 2549 554e 7B       		.uleb128 0x7b
 2550 554f 5F494F46 		.ascii "_IOFBF 0x0000\0"
 2550      42462030 
 2550      78303030 
 2550      3000
 2551 555d 01       		.byte	0x1
GAS LISTING c:\tmp\ccNEBtDk.s 			page 92


 2552 555e 7C       		.uleb128 0x7c
 2553 555f 5F494F4C 		.ascii "_IOLBF 0x0040\0"
 2553      42462030 
 2553      78303034 
 2553      3000
 2554 556d 01       		.byte	0x1
 2555 556e 7D       		.uleb128 0x7d
 2556 556f 5F494F4E 		.ascii "_IONBF 0x0004\0"
 2556      42462030 
 2556      78303030 
 2556      3400
 2557 557d 01       		.byte	0x1
 2558 557e 7F       		.uleb128 0x7f
 2559 557f 5F494F4D 		.ascii "_IOMYBUF 0x0008\0"
 2559      59425546 
 2559      20307830 
 2559      30303800 
 2560 558f 01       		.byte	0x1
 2561 5590 8001     		.uleb128 0x80
 2562 5592 5F494F45 		.ascii "_IOEOF 0x0010\0"
 2562      4F462030 
 2562      78303031 
 2562      3000
 2563 55a0 01       		.byte	0x1
 2564 55a1 8101     		.uleb128 0x81
 2565 55a3 5F494F45 		.ascii "_IOERR 0x0020\0"
 2565      52522030 
 2565      78303032 
 2565      3000
 2566 55b1 01       		.byte	0x1
 2567 55b2 8201     		.uleb128 0x82
 2568 55b4 5F494F53 		.ascii "_IOSTRG 0x0040\0"
 2568      54524720 
 2568      30783030 
 2568      343000
 2569 55c3 01       		.byte	0x1
 2570 55c4 8301     		.uleb128 0x83
 2571 55c6 5F494F52 		.ascii "_IORW 0x0080\0"
 2571      57203078 
 2571      30303830 
 2571      00
 2572 55d3 01       		.byte	0x1
 2573 55d4 8801     		.uleb128 0x88
 2574 55d6 5F54574F 		.ascii "_TWO_DIGIT_EXPONENT 0x1\0"
 2574      5F444947 
 2574      49545F45 
 2574      58504F4E 
 2574      454E5420 
 2575 55ee 02       		.byte	0x2
 2576 55ef EF02     		.uleb128 0x16f
 2577 55f1 5F5F4D49 		.ascii "__MINGW_PRINTF_FORMAT\0"
 2577      4E47575F 
 2577      5052494E 
 2577      54465F46 
 2577      4F524D41 
 2578 5607 02       		.byte	0x2
 2579 5608 F002     		.uleb128 0x170
GAS LISTING c:\tmp\ccNEBtDk.s 			page 93


 2580 560a 5F5F4D49 		.ascii "__MINGW_SCANF_FORMAT\0"
 2580      4E47575F 
 2580      5343414E 
 2580      465F464F 
 2580      524D4154 
 2581 561f 01       		.byte	0x1
 2582 5620 F102     		.uleb128 0x171
 2583 5622 5F5F4D49 		.ascii "__MINGW_PRINTF_FORMAT ms_printf\0"
 2583      4E47575F 
 2583      5052494E 
 2583      54465F46 
 2583      4F524D41 
 2584 5642 01       		.byte	0x1
 2585 5643 F202     		.uleb128 0x172
 2586 5645 5F5F4D49 		.ascii "__MINGW_SCANF_FORMAT ms_scanf\0"
 2586      4E47575F 
 2586      5343414E 
 2586      465F464F 
 2586      524D4154 
 2587 5663 02       		.byte	0x2
 2588 5664 F302     		.uleb128 0x173
 2589 5666 5F5F6275 		.ascii "__builtin_vsnprintf\0"
 2589      696C7469 
 2589      6E5F7673 
 2589      6E707269 
 2589      6E746600 
 2590 567a 02       		.byte	0x2
 2591 567b F402     		.uleb128 0x174
 2592 567d 5F5F6275 		.ascii "__builtin_vsprintf\0"
 2592      696C7469 
 2592      6E5F7673 
 2592      7072696E 
 2592      746600
 2593 5690 01       		.byte	0x1
 2594 5691 D203     		.uleb128 0x1d2
 2595 5693 5F46494C 		.ascii "_FILE_OFFSET_BITS_SET_FSEEKO \0"
 2595      455F4F46 
 2595      46534554 
 2595      5F424954 
 2595      535F5345 
 2596 56b1 01       		.byte	0x1
 2597 56b2 DE03     		.uleb128 0x1de
 2598 56b4 5F46494C 		.ascii "_FILE_OFFSET_BITS_SET_FTELLO \0"
 2598      455F4F46 
 2598      46534554 
 2598      5F424954 
 2598      535F5345 
 2599 56d2 01       		.byte	0x1
 2600 56d3 F303     		.uleb128 0x1f3
 2601 56d5 706F7065 		.ascii "popen _popen\0"
 2601      6E205F70 
 2601      6F70656E 
 2601      00
 2602 56e2 01       		.byte	0x1
 2603 56e3 F403     		.uleb128 0x1f4
 2604 56e5 70636C6F 		.ascii "pclose _pclose\0"
 2604      7365205F 
GAS LISTING c:\tmp\ccNEBtDk.s 			page 94


 2604      70636C6F 
 2604      736500
 2605 56f4 01       		.byte	0x1
 2606 56f5 FB03     		.uleb128 0x1fb
 2607 56f7 5F435254 		.ascii "_CRT_DIRECTORY_DEFINED \0"
 2607      5F444952 
 2607      4543544F 
 2607      52595F44 
 2607      4546494E 
 2608 570f 02       		.byte	0x2
 2609 5710 9804     		.uleb128 0x218
 2610 5712 736E7072 		.ascii "snprintf\0"
 2610      696E7466 
 2610      00
 2611 571b 02       		.byte	0x2
 2612 571c 9904     		.uleb128 0x219
 2613 571e 76736E70 		.ascii "vsnprintf\0"
 2613      72696E74 
 2613      6600
 2614 5728 01       		.byte	0x1
 2615 5729 BC04     		.uleb128 0x23c
 2616 572b 5F575354 		.ascii "_WSTDIO_DEFINED \0"
 2616      44494F5F 
 2616      44454649 
 2616      4E454420 
 2616      00
 2617 573c 01       		.byte	0x1
 2618 573d FA05     		.uleb128 0x2fa
 2619 573f 57454F46 		.ascii "WEOF (wint_t)(0xFFFF)\0"
 2619      20287769 
 2619      6E745F74 
 2619      29283078 
 2619      46464646 
 2620 5755 02       		.byte	0x2
 2621 5756 9C06     		.uleb128 0x31c
 2622 5758 736E7770 		.ascii "snwprintf\0"
 2622      72696E74 
 2622      6600
 2623 5762 02       		.byte	0x2
 2624 5763 9D06     		.uleb128 0x31d
 2625 5765 76736E77 		.ascii "vsnwprintf\0"
 2625      7072696E 
 2625      746600
 2626              		.file 16 "c:/programfiles/octave/octave-4.0.3/include/swprintf.inl"
 2627 5770 03       		.byte	0x3
 2628 5771 B806     		.uleb128 0x338
 2629 5773 10       		.uleb128 0x10
 2630 5774 01       		.byte	0x1
 2631 5775 08       		.uleb128 0x8
 2632 5776 5F494E43 		.ascii "_INC_SWPRINTF_INL \0"
 2632      5F535750 
 2632      52494E54 
 2632      465F494E 
 2632      4C2000
 2633 5789 02       		.byte	0x2
 2634 578a 0C       		.uleb128 0xc
 2635 578b 5F5F6D69 		.ascii "__mingw_ovr\0"
GAS LISTING c:\tmp\ccNEBtDk.s 			page 95


 2635      6E67775F 
 2635      6F767200 
 2636 5797 01       		.byte	0x1
 2637 5798 0E       		.uleb128 0xe
 2638 5799 5F5F6D69 		.ascii "__mingw_ovr static __attribute__ ((__unused__)) __inline__ __cdecl\0"
 2638      6E67775F 
 2638      6F767220 
 2638      73746174 
 2638      6963205F 
 2639 57dc 04       		.byte	0x4
 2640 57dd 01       		.byte	0x1
 2641 57de CF06     		.uleb128 0x34f
 2642 57e0 77706F70 		.ascii "wpopen _wpopen\0"
 2642      656E205F 
 2642      77706F70 
 2642      656E00
 2643 57ef 02       		.byte	0x2
 2644 57f0 D806     		.uleb128 0x358
 2645 57f2 5F435254 		.ascii "_CRT_GETPUTWCHAR_NOINLINE\0"
 2645      5F474554 
 2645      50555457 
 2645      43484152 
 2645      5F4E4F49 
 2646 580c 01       		.byte	0x1
 2647 580d DB06     		.uleb128 0x35b
 2648 580f 67657477 		.ascii "getwchar() fgetwc(stdin)\0"
 2648      63686172 
 2648      28292066 
 2648      67657477 
 2648      63287374 
 2649 5828 01       		.byte	0x1
 2650 5829 DC06     		.uleb128 0x35c
 2651 582b 70757477 		.ascii "putwchar(_c) fputwc((_c),stdout)\0"
 2651      63686172 
 2651      285F6329 
 2651      20667075 
 2651      74776328 
 2652 584c 01       		.byte	0x1
 2653 584d E206     		.uleb128 0x362
 2654 584f 67657477 		.ascii "getwc(_stm) fgetwc(_stm)\0"
 2654      63285F73 
 2654      746D2920 
 2654      66676574 
 2654      7763285F 
 2655 5868 01       		.byte	0x1
 2656 5869 E306     		.uleb128 0x363
 2657 586b 70757477 		.ascii "putwc(_c,_stm) fputwc(_c,_stm)\0"
 2657      63285F63 
 2657      2C5F7374 
 2657      6D292066 
 2657      70757477 
 2658 588a 01       		.byte	0x1
 2659 588b E406     		.uleb128 0x364
 2660 588d 5F707574 		.ascii "_putwc_nolock(_c,_stm) _fputwc_nolock(_c,_stm)\0"
 2660      77635F6E 
 2660      6F6C6F63 
 2660      6B285F63 
GAS LISTING c:\tmp\ccNEBtDk.s 			page 96


 2660      2C5F7374 
 2661 58bc 01       		.byte	0x1
 2662 58bd E506     		.uleb128 0x365
 2663 58bf 5F676574 		.ascii "_getwc_nolock(_c) _fgetwc_nolock(_c)\0"
 2663      77635F6E 
 2663      6F6C6F63 
 2663      6B285F63 
 2663      29205F66 
 2664 58e4 01       		.byte	0x1
 2665 58e5 E806     		.uleb128 0x368
 2666 58e7 5F535444 		.ascii "_STDIO_DEFINED \0"
 2666      494F5F44 
 2666      4546494E 
 2666      45442000 
 2667 58f7 01       		.byte	0x1
 2668 58f8 EB06     		.uleb128 0x36b
 2669 58fa 5F666765 		.ascii "_fgetc_nolock(_stream) (--(_stream)->_cnt >= 0 ? 0xff & *(_stream)->_ptr++ : _filbuf(_stre
 2669      74635F6E 
 2669      6F6C6F63 
 2669      6B285F73 
 2669      74726561 
 2670 5959 01       		.byte	0x1
 2671 595a EC06     		.uleb128 0x36c
 2672 595c 5F667075 		.ascii "_fputc_nolock(_c,_stream) (--(_stream)->_cnt >= 0 ? 0xff & (*(_stream)->_ptr++ = (char)(_c
 2672      74635F6E 
 2672      6F6C6F63 
 2672      6B285F63 
 2672      2C5F7374 
 2673 59d4 01       		.byte	0x1
 2674 59d5 ED06     		.uleb128 0x36d
 2675 59d7 5F676574 		.ascii "_getc_nolock(_stream) _fgetc_nolock(_stream)\0"
 2675      635F6E6F 
 2675      6C6F636B 
 2675      285F7374 
 2675      7265616D 
 2676 5a04 01       		.byte	0x1
 2677 5a05 EE06     		.uleb128 0x36e
 2678 5a07 5F707574 		.ascii "_putc_nolock(_c,_stream) _fputc_nolock(_c,_stream)\0"
 2678      635F6E6F 
 2678      6C6F636B 
 2678      285F632C 
 2678      5F737472 
 2679 5a3a 01       		.byte	0x1
 2680 5a3b EF06     		.uleb128 0x36f
 2681 5a3d 5F676574 		.ascii "_getchar_nolock() _getc_nolock(stdin)\0"
 2681      63686172 
 2681      5F6E6F6C 
 2681      6F636B28 
 2681      29205F67 
 2682 5a63 01       		.byte	0x1
 2683 5a64 F006     		.uleb128 0x370
 2684 5a66 5F707574 		.ascii "_putchar_nolock(_c) _putc_nolock((_c),stdout)\0"
 2684      63686172 
 2684      5F6E6F6C 
 2684      6F636B28 
 2684      5F632920 
 2685 5a94 01       		.byte	0x1
GAS LISTING c:\tmp\ccNEBtDk.s 			page 97


 2686 5a95 F106     		.uleb128 0x371
 2687 5a97 5F676574 		.ascii "_getwchar_nolock() _getwc_nolock(stdin)\0"
 2687      77636861 
 2687      725F6E6F 
 2687      6C6F636B 
 2687      2829205F 
 2688 5abf 01       		.byte	0x1
 2689 5ac0 F206     		.uleb128 0x372
 2690 5ac2 5F707574 		.ascii "_putwchar_nolock(_c) _putwc_nolock((_c),stdout)\0"
 2690      77636861 
 2690      725F6E6F 
 2690      6C6F636B 
 2690      285F6329 
 2691 5af2 01       		.byte	0x1
 2692 5af3 8107     		.uleb128 0x381
 2693 5af5 505F746D 		.ascii "P_tmpdir _P_tmpdir\0"
 2693      70646972 
 2693      205F505F 
 2693      746D7064 
 2693      697200
 2694 5b08 01       		.byte	0x1
 2695 5b09 8207     		.uleb128 0x382
 2696 5b0b 5359535F 		.ascii "SYS_OPEN _SYS_OPEN\0"
 2696      4F50454E 
 2696      205F5359 
 2696      535F4F50 
 2696      454E00
 2697 5b1e 01       		.byte	0x1
 2698 5b1f 9107     		.uleb128 0x391
 2699 5b21 5F5F4D49 		.ascii "__MINGW_MBWC_CONVERT_DEFINED \0"
 2699      4E47575F 
 2699      4D425743 
 2699      5F434F4E 
 2699      56455254 
 2700              		.file 17 "c:/programfiles/octave/octave-4.0.3/include/sec_api/stdio_s.h"
 2701 5b3f 03       		.byte	0x3
 2702 5b40 BF07     		.uleb128 0x3bf
 2703 5b42 11       		.uleb128 0x11
 2704 5b43 01       		.byte	0x1
 2705 5b44 07       		.uleb128 0x7
 2706 5b45 5F494E43 		.ascii "_INC_STDIO_S \0"
 2706      5F535444 
 2706      494F5F53 
 2706      2000
 2707 5b53 03       		.byte	0x3
 2708 5b54 09       		.uleb128 0x9
 2709 5b55 0D       		.uleb128 0xd
 2710 5b56 04       		.byte	0x4
 2711 5b57 04       		.byte	0x4
 2712              		.file 18 "c:/programfiles/octave/octave-4.0.3/include/_mingw_print_pop.h"
 2713 5b58 03       		.byte	0x3
 2714 5b59 C107     		.uleb128 0x3c1
 2715 5b5b 12       		.uleb128 0x12
 2716 5b5c 04       		.byte	0x4
 2717 5b5d 04       		.byte	0x4
 2718              		.file 19 "c:/programfiles/octave/octave-4.0.3/include/string.h"
 2719 5b5e 03       		.byte	0x3
GAS LISTING c:\tmp\ccNEBtDk.s 			page 98


 2720 5b5f 20       		.uleb128 0x20
 2721 5b60 13       		.uleb128 0x13
 2722 5b61 01       		.byte	0x1
 2723 5b62 07       		.uleb128 0x7
 2724 5b63 5F494E43 		.ascii "_INC_STRING \0"
 2724      5F535452 
 2724      494E4720 
 2724      00
 2725 5b70 01       		.byte	0x1
 2726 5b71 10       		.uleb128 0x10
 2727 5b72 5F4E4C53 		.ascii "_NLSCMP_DEFINED \0"
 2727      434D505F 
 2727      44454649 
 2727      4E454420 
 2727      00
 2728 5b83 01       		.byte	0x1
 2729 5b84 11       		.uleb128 0x11
 2730 5b85 5F4E4C53 		.ascii "_NLSCMPERROR 2147483647\0"
 2730      434D5045 
 2730      52524F52 
 2730      20323134 
 2730      37343833 
 2731 5b9d 01       		.byte	0x1
 2732 5b9e 20       		.uleb128 0x20
 2733 5b9f 5F57436F 		.ascii "_WConst_return _CONST_RETURN\0"
 2733      6E73745F 
 2733      72657475 
 2733      726E205F 
 2733      434F4E53 
 2734 5bbc 01       		.byte	0x1
 2735 5bbd 23       		.uleb128 0x23
 2736 5bbe 5F435254 		.ascii "_CRT_MEMORY_DEFINED \0"
 2736      5F4D454D 
 2736      4F52595F 
 2736      44454649 
 2736      4E454420 
 2737 5bd3 02       		.byte	0x2
 2738 5bd4 59       		.uleb128 0x59
 2739 5bd5 73747274 		.ascii "strtok_r\0"
 2739      6F6B5F72 
 2739      00
 2740 5bde 01       		.byte	0x1
 2741 5bdf 6D       		.uleb128 0x6d
 2742 5be0 7374726E 		.ascii "strncasecmp _strnicmp\0"
 2742      63617365 
 2742      636D7020 
 2742      5F737472 
 2742      6E69636D 
 2743 5bf6 01       		.byte	0x1
 2744 5bf7 6E       		.uleb128 0x6e
 2745 5bf8 73747263 		.ascii "strcasecmp _stricmp\0"
 2745      61736563 
 2745      6D70205F 
 2745      73747269 
 2745      636D7000 
 2746 5c0c 01       		.byte	0x1
 2747 5c0d 77       		.uleb128 0x77
GAS LISTING c:\tmp\ccNEBtDk.s 			page 99


 2748 5c0e 5F575354 		.ascii "_WSTRING_DEFINED \0"
 2748      52494E47 
 2748      5F444546 
 2748      494E4544 
 2748      2000
 2749 5c20 01       		.byte	0x1
 2750 5c21 A401     		.uleb128 0xa4
 2751 5c23 77637377 		.ascii "wcswcs wcsstr\0"
 2751      63732077 
 2751      63737374 
 2751      7200
 2752              		.file 20 "c:/programfiles/octave/octave-4.0.3/include/sec_api/string_s.h"
 2753 5c31 03       		.byte	0x3
 2754 5c32 B401     		.uleb128 0xb4
 2755 5c34 14       		.uleb128 0x14
 2756 5c35 01       		.byte	0x1
 2757 5c36 07       		.uleb128 0x7
 2758 5c37 5F494E43 		.ascii "_INC_STRING_S \0"
 2758      5F535452 
 2758      494E475F 
 2758      532000
 2759 5c46 03       		.byte	0x3
 2760 5c47 09       		.uleb128 0x9
 2761 5c48 13       		.uleb128 0x13
 2762 5c49 04       		.byte	0x4
 2763 5c4a 04       		.byte	0x4
 2764 5c4b 04       		.byte	0x4
 2765 5c4c 01       		.byte	0x1
 2766 5c4d 28       		.uleb128 0x28
 2767 5c4e 6A6D7028 		.ascii "jmp(target) {goto target;}\0"
 2767      74617267 
 2767      65742920 
 2767      7B676F74 
 2767      6F207461 
 2768 5c69 01       		.byte	0x1
 2769 5c6a 29       		.uleb128 0x29
 2770 5c6b 62726571 		.ascii "breq(cond,target) {if((cond)==0) goto target;}\0"
 2770      28636F6E 
 2770      642C7461 
 2770      72676574 
 2770      29207B69 
 2771 5c9a 01       		.byte	0x1
 2772 5c9b 2A       		.uleb128 0x2a
 2773 5c9c 6C6F6164 		.ascii "load(R,val) {(R) = (val);}\0"
 2773      28522C76 
 2773      616C2920 
 2773      7B285229 
 2773      203D2028 
 2774 5cb7 01       		.byte	0x1
 2775 5cb8 2B       		.uleb128 0x2b
 2776 5cb9 73746F72 		.ascii "store(sym,val) {(sym) = (val);}\0"
 2776      65287379 
 2776      6D2C7661 
 2776      6C29207B 
 2776      2873796D 
 2777 5cd9 01       		.byte	0x1
 2778 5cda 2C       		.uleb128 0x2c
GAS LISTING c:\tmp\ccNEBtDk.s 			page 100


 2779 5cdb 65712852 		.ascii "eq(R,op) {(R) = (R)==(op);}\0"
 2779      2C6F7029 
 2779      207B2852 
 2779      29203D20 
 2779      2852293D 
 2780 5cf7 01       		.byte	0x1
 2781 5cf8 2D       		.uleb128 0x2d
 2782 5cf9 6E657128 		.ascii "neq(R,op) {(R) = (R)!=(op);}\0"
 2782      522C6F70 
 2782      29207B28 
 2782      5229203D 
 2782      20285229 
 2783 5d16 01       		.byte	0x1
 2784 5d17 2E       		.uleb128 0x2e
 2785 5d18 6C742852 		.ascii "lt(R,op) {(R) = (R)<(op);}\0"
 2785      2C6F7029 
 2785      207B2852 
 2785      29203D20 
 2785      2852293C 
 2786 5d33 01       		.byte	0x1
 2787 5d34 2F       		.uleb128 0x2f
 2788 5d35 6C657128 		.ascii "leq(R,op) {(R) = (R)<=(op);}\0"
 2788      522C6F70 
 2788      29207B28 
 2788      5229203D 
 2788      20285229 
 2789 5d52 01       		.byte	0x1
 2790 5d53 30       		.uleb128 0x30
 2791 5d54 67742852 		.ascii "gt(R,op) {(R) = (R)>(op);}\0"
 2791      2C6F7029 
 2791      207B2852 
 2791      29203D20 
 2791      2852293E 
 2792 5d6f 01       		.byte	0x1
 2793 5d70 31       		.uleb128 0x31
 2794 5d71 67657128 		.ascii "geq(R,op) {(R) = (R)>=(op);}\0"
 2794      522C6F70 
 2794      29207B28 
 2794      5229203D 
 2794      20285229 
 2795 5d8e 01       		.byte	0x1
 2796 5d8f 32       		.uleb128 0x32
 2797 5d90 6F722852 		.ascii "or(R,op) {(R) = (R)||(op);}\0"
 2797      2C6F7029 
 2797      207B2852 
 2797      29203D20 
 2797      2852297C 
 2798 5dac 01       		.byte	0x1
 2799 5dad 33       		.uleb128 0x33
 2800 5dae 616E6428 		.ascii "and(R,op) {(R) = (R)&&(op);}\0"
 2800      522C6F70 
 2800      29207B28 
 2800      5229203D 
 2800      20285229 
 2801 5dcb 01       		.byte	0x1
 2802 5dcc 34       		.uleb128 0x34
 2803 5dcd 61646428 		.ascii "add(R,op) {(R) += (op);}\0"
GAS LISTING c:\tmp\ccNEBtDk.s 			page 101


 2803      522C6F70 
 2803      29207B28 
 2803      5229202B 
 2803      3D20286F 
 2804 5de6 01       		.byte	0x1
 2805 5de7 35       		.uleb128 0x35
 2806 5de8 73756228 		.ascii "sub(R,op) {(R) -= (op);}\0"
 2806      522C6F70 
 2806      29207B28 
 2806      5229202D 
 2806      3D20286F 
 2807 5e01 01       		.byte	0x1
 2808 5e02 36       		.uleb128 0x36
 2809 5e03 6D756C28 		.ascii "mul(R,op) {(R) *= (op);}\0"
 2809      522C6F70 
 2809      29207B28 
 2809      5229202A 
 2809      3D20286F 
 2810 5e1c 01       		.byte	0x1
 2811 5e1d 37       		.uleb128 0x37
 2812 5e1e 64697628 		.ascii "div(R,op) {(R) /= (op);}\0"
 2812      522C6F70 
 2812      29207B28 
 2812      5229202F 
 2812      3D20286F 
 2813 5e37 01       		.byte	0x1
 2814 5e38 38       		.uleb128 0x38
 2815 5e39 6D6F6428 		.ascii "mod(R,op) {(R) %= (op);}\0"
 2815      522C6F70 
 2815      29207B28 
 2815      52292025 
 2815      3D20286F 
 2816 5e52 04       		.byte	0x4
 2817 5e53 00       		.byte	0
 2818              		.section	.debug_line,"dr"
 2819              	Ldebug_line0:
 2820 0000 29020000 		.section	.debug_str,"dr"
 2820      0200D601 
 2820      00000101 
 2820      FB0E0D00 
 2820      01010101 
 2821              		.ident	"GCC: (GNU) 4.9.3"
 2822              		.def	_strcmp;	.scl	2;	.type	32;	.endef
 2823              		.def	_atoi;	.scl	2;	.type	32;	.endef
 2824              		.def	_printf;	.scl	2;	.type	32;	.endef
GAS LISTING c:\tmp\ccNEBtDk.s 			page 102


DEFINED SYMBOLS
                            *ABS*:00000000 euclid.c
   c:\tmp\ccNEBtDk.s:19     .text:00000000 _main

UNDEFINED SYMBOLS
___main
_strcmp
_atoi
_printf
