GAS LISTING c:\tmp\ccNEBtDk.s 			page 1


   1              		.file	"euclid.c"
   2              		.text
   3              	Ltext0:
   4              		.def	___main;	.scl	2;	.type	32;	.endef
   5              		.section .rdata,"dr"
   6              	LC0:
   7 0000 6900     		.ascii "i\0"
   8              	LC1:
   9 0002 6A00     		.ascii "j\0"
  10              	LC2:
  11 0004 61203D20 		.ascii "a = %d\12\0"
  11      25640A00 
  12              	LC3:
  13 000c 62203D20 		.ascii "b = %d\12\0"
  13      25640A00 
  14              	LC4:
  15 0014 68203D20 		.ascii "h = %d\12\0"
  15      25640A00 
  16              		.text
  17              		.globl	_main
  18              		.def	_main;	.scl	2;	.type	32;	.endef
  19              	_main:
  20              	LFB16:
  21              		.file 1 "output/euclid.c"
   1:output/euclid.c **** /**
   2:output/euclid.c ****  * @file euclid.c
   3:output/euclid.c ****  *
   4:output/euclid.c ****  * C code generated from program euclid.fcl written in a fictive
   5:output/euclid.c ****  * computer language.
   6:output/euclid.c ****  *
   7:output/euclid.c ****  * This file has been created with help of st4Render.m, see
   8:output/euclid.c ****  * https://sourceforge.net/projects/stringtemplate-for-octave/
   9:output/euclid.c ****  *
  10:output/euclid.c ****  * Copyright (C) 2016 Peter Vranken (mailto:Peter_Vranken@Yahoo.de)
  11:output/euclid.c ****  *
  12:output/euclid.c ****  * This program is free software: you can redistribute it and/or modify it
  13:output/euclid.c ****  * under the terms of the GNU General Public License as published by the
  14:output/euclid.c ****  * Free Software Foundation, either version 3 of the License, or (at your
  15:output/euclid.c ****  * option) any later version.
  16:output/euclid.c ****  *
  17:output/euclid.c ****  * This program is distributed in the hope that it will be useful, but
  18:output/euclid.c ****  * WITHOUT ANY WARRANTY; without even the implied warranty of
  19:output/euclid.c ****  * MERCHANTABILITY or FITNESS FOR A PARTICULAR PURPOSE. See the GNU
  20:output/euclid.c ****  * General Public License for more details.
  21:output/euclid.c ****  *
  22:output/euclid.c ****  * You should have received a copy of the GNU General Public License along
  23:output/euclid.c ****  * with this program. If not, see <http://www.gnu.org/licenses/>.
  24:output/euclid.c ****  */
  25:output/euclid.c **** 
  26:output/euclid.c **** /*
  27:output/euclid.c ****  * Include files
  28:output/euclid.c ****  */
  29:output/euclid.c **** 
  30:output/euclid.c **** #include <stdlib.h>
  31:output/euclid.c **** #include <stdio.h>
  32:output/euclid.c **** #include <string.h>
  33:output/euclid.c **** 
GAS LISTING c:\tmp\ccNEBtDk.s 			page 2


  34:output/euclid.c **** 
  35:output/euclid.c **** /*
  36:output/euclid.c ****  * Defines
  37:output/euclid.c ****  */
  38:output/euclid.c **** 
  39:output/euclid.c **** /* Definition of the pseudo assembler statements. */
  40:output/euclid.c **** #define jmp(target)         {goto target;}
  41:output/euclid.c **** #define breq(cond,target)   {if((cond)==0) goto target;}
  42:output/euclid.c **** #define load(R,val)         {(R) = (val);}
  43:output/euclid.c **** #define store(sym,val)      {(sym) = (val);}
  44:output/euclid.c **** #define eq(R,op)            {(R) = (R)==(op);}
  45:output/euclid.c **** #define neq(R,op)           {(R) = (R)!=(op);}
  46:output/euclid.c **** #define lt(R,op)            {(R) = (R)<(op);}
  47:output/euclid.c **** #define leq(R,op)           {(R) = (R)<=(op);}
  48:output/euclid.c **** #define gt(R,op)            {(R) = (R)>(op);}
  49:output/euclid.c **** #define geq(R,op)           {(R) = (R)>=(op);}
  50:output/euclid.c **** #define or(R,op)            {(R) = (R)||(op);}
  51:output/euclid.c **** #define and(R,op)           {(R) = (R)&&(op);}
  52:output/euclid.c **** #define add(R,op)           {(R) += (op);}
  53:output/euclid.c **** #define sub(R,op)           {(R) -= (op);}
  54:output/euclid.c **** #define mul(R,op)           {(R) *= (op);}
  55:output/euclid.c **** #define div(R,op)           {(R) /= (op);}
  56:output/euclid.c **** #define mod(R,op)           {(R) %= (op);}
  57:output/euclid.c **** 
  58:output/euclid.c **** 
  59:output/euclid.c **** /*
  60:output/euclid.c ****  * Local type definitions
  61:output/euclid.c ****  */
  62:output/euclid.c **** 
  63:output/euclid.c **** 
  64:output/euclid.c **** /*
  65:output/euclid.c ****  * Local prototypes
  66:output/euclid.c ****  */
  67:output/euclid.c **** 
  68:output/euclid.c **** 
  69:output/euclid.c **** /*
  70:output/euclid.c ****  * Data definitions
  71:output/euclid.c ****  */
  72:output/euclid.c **** 
  73:output/euclid.c **** 
  74:output/euclid.c **** /*
  75:output/euclid.c ****  * Function implementation
  76:output/euclid.c ****  */
  77:output/euclid.c **** 
  78:output/euclid.c **** /**
  79:output/euclid.c ****  * Application main entry point. The code from the fictive computer language can be run
  80:output/euclid.c ****  * with command line provided variable values. All variables, which do not get any value in
  81:output/euclid.c ****  * the computer program itself are considered external interfaces and are connected to the
  82:output/euclid.c ****  * command line. Each two consecutive command line arguments are a pair of variable name
  83:output/euclid.c ****  * and variable value. The value is a signed integer value and it is propagated to the
  84:output/euclid.c ****  * program variable of given name.
  85:output/euclid.c ****  *   @return
  86:output/euclid.c ****  * Always 0, no error conditions are implemented.
  87:output/euclid.c ****  *   @param noArgs
  88:output/euclid.c ****  * Number of command line arguments. Need to be even.
  89:output/euclid.c ****  *   @param argAry
  90:output/euclid.c ****  * Array of command line arguments.
GAS LISTING c:\tmp\ccNEBtDk.s 			page 3


  91:output/euclid.c ****  */
  92:output/euclid.c **** int main(int noArgs, const char * argAry[])
  93:output/euclid.c **** {
  22              		.loc 1 93 0
  23              		.cfi_startproc
  24 0000 55       		pushl	%ebp
  25              		.cfi_def_cfa_offset 8
  26              		.cfi_offset 5, -8
  27 0001 89E5     		movl	%esp, %ebp
  28              		.cfi_def_cfa_register 5
  29 0003 83E4F0   		andl	$-16, %esp
  30 0006 83EC30   		subl	$48, %esp
  31              		.loc 1 93 0
  32 0009 E8000000 		call	___main
  32      00
  94:output/euclid.c ****     /* Initialization of required variables. */
  95:output/euclid.c ****     int i=0, j=0, a=0, b=0, h=0;
  33              		.loc 1 95 0
  34 000e C744242C 		movl	$0, 44(%esp)
  34      00000000 
  35 0016 C7442428 		movl	$0, 40(%esp)
  35      00000000 
  36 001e C7442424 		movl	$0, 36(%esp)
  36      00000000 
  37 0026 C7442420 		movl	$0, 32(%esp)
  37      00000000 
  38 002e C744241C 		movl	$0, 28(%esp)
  38      00000000 
  96:output/euclid.c **** 
  97:output/euclid.c **** 
  98:output/euclid.c ****     /* The following variables is not assigned any value in the source program
  99:output/euclid.c ****        euclid.fcl. We consider them system inputs and connect them to the
 100:output/euclid.c ****        application interface. */
 101:output/euclid.c ****     int _idxArg;
 102:output/euclid.c ****     for(_idxArg=1; _idxArg+1<noArgs; _idxArg+=2)
  39              		.loc 1 102 0
  40 0036 C7442418 		movl	$1, 24(%esp)
  40      01000000 
  41 003e E9930000 		jmp	L2
  41      00
  42              	L5:
 103:output/euclid.c ****     {
 104:output/euclid.c ****        if(strcmp(argAry[_idxArg], "i") == 0)	i = atoi(argAry[_idxArg+1]);
  43              		.loc 1 104 0
  44 0043 8B442418 		movl	24(%esp), %eax
  45 0047 8D148500 		leal	0(,%eax,4), %edx
  45      000000
  46 004e 8B450C   		movl	12(%ebp), %eax
  47 0051 01D0     		addl	%edx, %eax
  48 0053 8B00     		movl	(%eax), %eax
  49 0055 C7442404 		movl	$LC0, 4(%esp)
  49      00000000 
  50 005d 890424   		movl	%eax, (%esp)
  51 0060 E8000000 		call	_strcmp
  51      00
  52 0065 85C0     		testl	%eax, %eax
  53 0067 7521     		jne	L3
GAS LISTING c:\tmp\ccNEBtDk.s 			page 4


  54              		.loc 1 104 0 is_stmt 0 discriminator 1
  55 0069 8B442418 		movl	24(%esp), %eax
  56 006d 83C001   		addl	$1, %eax
  57 0070 8D148500 		leal	0(,%eax,4), %edx
  57      000000
  58 0077 8B450C   		movl	12(%ebp), %eax
  59 007a 01D0     		addl	%edx, %eax
  60 007c 8B00     		movl	(%eax), %eax
  61 007e 890424   		movl	%eax, (%esp)
  62 0081 E8000000 		call	_atoi
  62      00
  63 0086 8944242C 		movl	%eax, 44(%esp)
  64              	L3:
 105:output/euclid.c ****        if(strcmp(argAry[_idxArg], "j") == 0)	j = atoi(argAry[_idxArg+1]);
  65              		.loc 1 105 0 is_stmt 1
  66 008a 8B442418 		movl	24(%esp), %eax
  67 008e 8D148500 		leal	0(,%eax,4), %edx
  67      000000
  68 0095 8B450C   		movl	12(%ebp), %eax
  69 0098 01D0     		addl	%edx, %eax
  70 009a 8B00     		movl	(%eax), %eax
  71 009c C7442404 		movl	$LC1, 4(%esp)
  71      02000000 
  72 00a4 890424   		movl	%eax, (%esp)
  73 00a7 E8000000 		call	_strcmp
  73      00
  74 00ac 85C0     		testl	%eax, %eax
  75 00ae 7521     		jne	L4
  76              		.loc 1 105 0 is_stmt 0 discriminator 1
  77 00b0 8B442418 		movl	24(%esp), %eax
  78 00b4 83C001   		addl	$1, %eax
  79 00b7 8D148500 		leal	0(,%eax,4), %edx
  79      000000
  80 00be 8B450C   		movl	12(%ebp), %eax
  81 00c1 01D0     		addl	%edx, %eax
  82 00c3 8B00     		movl	(%eax), %eax
  83 00c5 890424   		movl	%eax, (%esp)
  84 00c8 E8000000 		call	_atoi
  84      00
  85 00cd 89442428 		movl	%eax, 40(%esp)
  86              	L4:
 102:output/euclid.c ****     {
  87              		.loc 1 102 0 is_stmt 1 discriminator 2
  88 00d1 83442418 		addl	$2, 24(%esp)
  88      02
  89              	L2:
 102:output/euclid.c ****     {
  90              		.loc 1 102 0 is_stmt 0 discriminator 1
  91 00d6 8B442418 		movl	24(%esp), %eax
  92 00da 83C001   		addl	$1, %eax
  93 00dd 3B4508   		cmpl	8(%ebp), %eax
  94 00e0 0F8C5DFF 		jl	L5
  94      FFFF
 106:output/euclid.c ****     }
 107:output/euclid.c **** 
 108:output/euclid.c **** 
 109:output/euclid.c ****     /* Definition of temporary variables for expression evaluation. */
GAS LISTING c:\tmp\ccNEBtDk.s 			page 5


 110:output/euclid.c ****     int _R00;
 111:output/euclid.c **** 
 112:output/euclid.c ****     /* Find the greatest common divisor of two integer numbers. */
 113:output/euclid.c ****     /* An implementation of Euklid's algorithm. */
 114:output/euclid.c ****     /* See http://de.wikipedia.org/wiki/Euklidischer_Algorithmus and particularly */
 115:output/euclid.c ****     /* http://de.wikipedia.org/wiki/Euklidischer_Algorithmus#Beschreibung_durch_Pseudocode */
 116:output/euclid.c ****     /* (visited on Mar 6, 2014) for details on Euclid's algorithm. */
 117:output/euclid.c ****     /* Inputs are i and j. */
 118:output/euclid.c ****     store(a, i)
  95              		.loc 1 118 0 is_stmt 1
  96 00e6 8B44242C 		movl	44(%esp), %eax
  97 00ea 89442424 		movl	%eax, 36(%esp)
 119:output/euclid.c ****     store(b, j)
  98              		.loc 1 119 0
  99 00ee 8B442428 		movl	40(%esp), %eax
 100 00f2 89442420 		movl	%eax, 32(%esp)
 101              	L6:
 120:output/euclid.c ****     _loop_1:
 121:output/euclid.c ****     load(_R00, b)
 102              		.loc 1 121 0
 103 00f6 8B442420 		movl	32(%esp), %eax
 104 00fa 89442414 		movl	%eax, 20(%esp)
 122:output/euclid.c ****     eq(_R00, 0)
 105              		.loc 1 122 0
 106 00fe 837C2414 		cmpl	$0, 20(%esp)
 106      00
 107 0103 0F94C0   		sete	%al
 108 0106 0FB6C0   		movzbl	%al, %eax
 109 0109 89442414 		movl	%eax, 20(%esp)
 123:output/euclid.c ****     breq(_R00, _else_2)
 110              		.loc 1 123 0
 111 010d 837C2414 		cmpl	$0, 20(%esp)
 111      00
 112 0112 7502     		jne	L7
 113 0114 EB02     		jmp	L12
 114              	L7:
 124:output/euclid.c ****     jmp(_exit_loop_1)
 115              		.loc 1 124 0
 116 0116 EB2F     		jmp	L13
 117              	L8:
 118              	L12:
 119              	L10:
 125:output/euclid.c ****     jmp(_end_if_2)
 126:output/euclid.c ****     _else_2:
 127:output/euclid.c ****     _end_if_2:
 128:output/euclid.c ****     /* h always has the sign of a. */
 129:output/euclid.c ****     load(_R00, a)
 120              		.loc 1 129 0
 121 0118 8B442424 		movl	36(%esp), %eax
 122 011c 89442414 		movl	%eax, 20(%esp)
 130:output/euclid.c ****     mod(_R00, b)
 123              		.loc 1 130 0
 124 0120 8B442414 		movl	20(%esp), %eax
 125 0124 99       		cltd
 126 0125 F77C2420 		idivl	32(%esp)
 127 0129 89542414 		movl	%edx, 20(%esp)
 131:output/euclid.c ****     store(h, _R00)
GAS LISTING c:\tmp\ccNEBtDk.s 			page 6


 128              		.loc 1 131 0
 129 012d 8B442414 		movl	20(%esp), %eax
 130 0131 8944241C 		movl	%eax, 28(%esp)
 132:output/euclid.c ****     store(a, b)
 131              		.loc 1 132 0
 132 0135 8B442420 		movl	32(%esp), %eax
 133 0139 89442424 		movl	%eax, 36(%esp)
 133:output/euclid.c ****     store(b, h)
 134              		.loc 1 133 0
 135 013d 8B44241C 		movl	28(%esp), %eax
 136 0141 89442420 		movl	%eax, 32(%esp)
 134:output/euclid.c ****     jmp(_loop_1)
 137              		.loc 1 134 0
 138 0145 EBAF     		jmp	L6
 139              	L13:
 140              	L9:
 135:output/euclid.c ****     _exit_loop_1:
 136:output/euclid.c ****     /* a holds the result. */
 137:output/euclid.c **** 
 138:output/euclid.c **** 
 139:output/euclid.c ****     /* All variables are printed at the end as a kind of program output. */
 140:output/euclid.c ****     printf("a = %d\n", a);
 141              		.loc 1 140 0
 142 0147 8B442424 		movl	36(%esp), %eax
 143 014b 89442404 		movl	%eax, 4(%esp)
 144 014f C7042404 		movl	$LC2, (%esp)
 144      000000
 145 0156 E8000000 		call	_printf
 145      00
 141:output/euclid.c ****     printf("b = %d\n", b);
 146              		.loc 1 141 0
 147 015b 8B442420 		movl	32(%esp), %eax
 148 015f 89442404 		movl	%eax, 4(%esp)
 149 0163 C704240C 		movl	$LC3, (%esp)
 149      000000
 150 016a E8000000 		call	_printf
 150      00
 142:output/euclid.c ****     printf("h = %d\n", h);
 151              		.loc 1 142 0
 152 016f 8B44241C 		movl	28(%esp), %eax
 153 0173 89442404 		movl	%eax, 4(%esp)
 154 0177 C7042414 		movl	$LC4, (%esp)
 154      000000
 155 017e E8000000 		call	_printf
 155      00
 143:output/euclid.c **** 
 144:output/euclid.c **** 
 145:output/euclid.c ****     return 0;
 156              		.loc 1 145 0
 157 0183 B8000000 		movl	$0, %eax
 157      00
 146:output/euclid.c **** 
 147:output/euclid.c **** } /* End of main */...
 158              		.loc 1 147 0
 159 0188 C9       		leave
 160              		.cfi_restore 5
 161              		.cfi_def_cfa 4, 4
GAS LISTING c:\tmp\ccNEBtDk.s 			page 7


 162 0189 C3       		ret
 163              		.cfi_endproc
 164              	LFE16:
 165              	Letext0: