GAS LISTING c:\tmp\ccnSEM0y.s 			page 1


   1              		.file	"test.c"
   2              		.text
   3              	Ltext0:
   4              		.def	___main;	.scl	2;	.type	32;	.endef
   5              		.section .rdata,"dr"
   6              	LC0:
   7 0000 7A00     		.ascii "z\0"
   8              	LC1:
   9 0002 636E744C 		.ascii "cntLoops = %d\12\0"
   9      6F6F7073 
   9      203D2025 
   9      640A00
  10              	LC2:
  11 0011 73686F77 		.ascii "show = %d\12\0"
  11      203D2025 
  11      640A00
  12              	LC3:
  13 001c 78203D20 		.ascii "x = %d\12\0"
  13      25640A00 
  14              	LC4:
  15 0024 79203D20 		.ascii "y = %d\12\0"
  15      25640A00 
  16              		.section	.text.unlikely,"x"
  17              	LCOLDB5:
  18              		.section	.text.startup,"x"
  19              	LHOTB5:
  20              		.p2align 4,,15
  21              		.section	.text.unlikely,"x"
  22              	Ltext_cold0:
  23              		.section	.text.startup,"x"
  24              		.globl	_main
  25              		.def	_main;	.scl	2;	.type	32;	.endef
  26              	_main:
  27              	LFB26:
  28              		.file 1 "test.c"
   1:test.c        **** /**
   2:test.c        ****  * @file test.c
   3:test.c        ****  * C code generated from program test.fcl written in a fictive
   4:test.c        ****  * computer language.
   5:test.c        ****  *
   6:test.c        ****  * Copyright (C) 2016 Peter Vranken (mailto:Peter_Vranken@Yahoo.de)
   7:test.c        ****  *
   8:test.c        ****  * This program is free software: you can redistribute it and/or modify it
   9:test.c        ****  * under the terms of the GNU General Public License as published by the
  10:test.c        ****  * Free Software Foundation, either version 3 of the License, or (at your
  11:test.c        ****  * option) any later version.
  12:test.c        ****  *
  13:test.c        ****  * This program is distributed in the hope that it will be useful, but
  14:test.c        ****  * WITHOUT ANY WARRANTY; without even the implied warranty of
  15:test.c        ****  * MERCHANTABILITY or FITNESS FOR A PARTICULAR PURPOSE. See the GNU
  16:test.c        ****  * General Public License for more details.
  17:test.c        ****  *
  18:test.c        ****  * You should have received a copy of the GNU General Public License along
  19:test.c        ****  * with this program. If not, see <http://www.gnu.org/licenses/>.
  20:test.c        ****  */
  21:test.c        **** /* Module interface
  22:test.c        ****  * Local functions
GAS LISTING c:\tmp\ccnSEM0y.s 			page 2


  23:test.c        ****  */
  24:test.c        **** 
  25:test.c        **** /*
  26:test.c        ****  * Include files
  27:test.c        ****  */
  28:test.c        **** 
  29:test.c        **** #include <stdlib.h>
  30:test.c        **** #include <stdio.h>
  31:test.c        **** #include <string.h>
  32:test.c        **** 
  33:test.c        **** 
  34:test.c        **** /*
  35:test.c        ****  * Defines
  36:test.c        ****  */
  37:test.c        **** 
  38:test.c        **** /* Definition of the pseudo assembler statements. */ 
  39:test.c        **** #define jmp(target)         {goto target;}
  40:test.c        **** #define brneq(cond,target)  {if(cond) goto target;}
  41:test.c        **** #define load(R,val)         {R = val;}
  42:test.c        **** #define store(sym,val)      {sym = val;}
  43:test.c        **** #define eq(R,op)            {R = R==op;}
  44:test.c        **** #define neq(R,op)           {R = R!=op;}
  45:test.c        **** #define lt(R,op)            {R = R<op;}
  46:test.c        **** #define leq(R,op)           {R = R<=op;}
  47:test.c        **** #define gt(R,op)            {R = R>op;}
  48:test.c        **** #define geq(R,op)           {R = R>=op;}
  49:test.c        **** #define or(R,op)            {R ||= op;}
  50:test.c        **** #define and(R,op)           {R &&= op;}
  51:test.c        **** #define add(R,op)           {R += op;}
  52:test.c        **** #define sub(R,op)           {R -= op;}
  53:test.c        **** #define mul(R,op)           {R *= op;}
  54:test.c        **** #define div(R,op)           {R /= op;}
  55:test.c        **** #define mod(R,op)           {R %= op;}
  56:test.c        **** 
  57:test.c        **** 
  58:test.c        **** /*
  59:test.c        ****  * Local type definitions
  60:test.c        ****  */
  61:test.c        **** 
  62:test.c        **** 
  63:test.c        **** /*
  64:test.c        ****  * Local prototypes
  65:test.c        ****  */
  66:test.c        **** 
  67:test.c        **** 
  68:test.c        **** /*
  69:test.c        ****  * Data definitions
  70:test.c        ****  */
  71:test.c        **** 
  72:test.c        **** 
  73:test.c        **** /*
  74:test.c        ****  * Function implementation
  75:test.c        ****  */
  76:test.c        **** 
  77:test.c        **** /**
  78:test.c        ****  * Application main entry point. The code from the fictive computer language can be run
  79:test.c        ****  * with command line provided variable values. All variables, which do not get any value in
GAS LISTING c:\tmp\ccnSEM0y.s 			page 3


  80:test.c        ****  * the computer program itself are considered external interfaces and are connected to the
  81:test.c        ****  * command line. Each two consequetive command line arguments are a pair of variable name
  82:test.c        ****  * and variable value. The value is a signed integer value and it is propgated to the
  83:test.c        ****  * program variable of given name.
  84:test.c        ****  *   @return
  85:test.c        ****  * Always 0, no error conditions are implemented.
  86:test.c        ****  *   @param noArgs
  87:test.c        ****  * Number of command line arguments. Need to be even.
  88:test.c        ****  *   @param argAry
  89:test.c        ****  * Array of command line arguments.
  90:test.c        ****  */
  91:test.c        **** int main(int noArgs, const char * argAry[])
  92:test.c        **** {
  29              		.loc 1 92 0
  30              		.cfi_startproc
  31              	LVL0:
  32 0000 55       		pushl	%ebp
  33              		.cfi_def_cfa_offset 8
  34              		.cfi_offset 5, -8
  35 0001 89E5     		movl	%esp, %ebp
  36              		.cfi_def_cfa_register 5
  37 0003 57       		pushl	%edi
  38 0004 56       		pushl	%esi
  39 0005 53       		pushl	%ebx
  40 0006 83E4F0   		andl	$-16, %esp
  41 0009 83EC20   		subl	$32, %esp
  42              		.cfi_offset 7, -12
  43              		.cfi_offset 6, -16
  44              		.cfi_offset 3, -20
  45              		.loc 1 92 0
  46 000c 8B5D08   		movl	8(%ebp), %ebx
  47 000f 8B550C   		movl	12(%ebp), %edx
  48 0012 89542418 		movl	%edx, 24(%esp)
  49 0016 E8000000 		call	___main
  49      00
  50              	LVL1:
  93:test.c        ****     /* Map of variables. */
  94:test.c        ****     int cntLoops=0, show=0, x=0, y=0, z=0;
  95:test.c        **** 
  96:test.c        ****     /* The following variables is not assigned any value in the source program
  97:test.c        ****        test.fcl. We consider them system inputs and connect them
  98:test.c        ****        to the application interface. */
  99:test.c        ****     int _idxArg;
 100:test.c        ****     for(_idxArg=1; _idxArg+1<noArgs; _idxArg+=2)
  51              		.loc 1 100 0
  52 001b 83FB02   		cmpl	$2, %ebx
  53 001e 0F8EF000 		jle	L9
  53      0000
  54 0024 83EB03   		subl	$3, %ebx
  55 0027 C7442414 		movl	$0, 20(%esp)
  55      00000000 
 101:test.c        ****     {
 102:test.c        ****         if(strcmp(argAry[_idxArg], "z") == 0)	z = atoi(argAry[_idxArg+1]);
  56              		.loc 1 102 0
  57 002f 8B542418 		movl	24(%esp), %edx
  58 0033 83E3FE   		andl	$-2, %ebx
  59 0036 8D4303   		leal	3(%ebx), %eax
GAS LISTING c:\tmp\ccnSEM0y.s 			page 4


 100:test.c        ****     {
  60              		.loc 1 100 0
  61 0039 BB010000 		movl	$1, %ebx
  61      00
  62 003e 8944241C 		movl	%eax, 28(%esp)
  63 0042 EB09     		jmp	L4
  64              	LVL2:
  65              		.p2align 4,,10
  66              	L3:
 100:test.c        ****     {
  67              		.loc 1 100 0 is_stmt 0 discriminator 2
  68 0044 83C302   		addl	$2, %ebx
  69              	LVL3:
  70 0047 3B5C241C 		cmpl	28(%esp), %ebx
  71 004b 7432     		je	L2
  72              	LVL4:
  73              	L4:
  74              		.loc 1 102 0 is_stmt 1
  75 004d 8B349A   		movl	(%edx,%ebx,4), %esi
  76 0050 BF000000 		movl	$LC0, %edi
  76      00
  77 0055 B9020000 		movl	$2, %ecx
  77      00
  78 005a F3A6     		repz cmpsb
  79 005c 75E6     		jne	L3
  80              		.loc 1 102 0 is_stmt 0 discriminator 1
  81 005e 8B449A04 		movl	4(%edx,%ebx,4), %eax
  82 0062 89542418 		movl	%edx, 24(%esp)
 100:test.c        ****     {
  83              		.loc 1 100 0 is_stmt 1 discriminator 1
  84 0066 83C302   		addl	$2, %ebx
  85              	LVL5:
  86              		.loc 1 102 0 discriminator 1
  87 0069 890424   		movl	%eax, (%esp)
  88 006c E8000000 		call	_atoi
  88      00
  89              	LVL6:
 100:test.c        ****     {
  90              		.loc 1 100 0 discriminator 1
  91 0071 3B5C241C 		cmpl	28(%esp), %ebx
  92              		.loc 1 102 0 discriminator 1
  93 0075 89442414 		movl	%eax, 20(%esp)
  94              	LVL7:
  95 0079 8B542418 		movl	24(%esp), %edx
  96              	LVL8:
 100:test.c        ****     {
  97              		.loc 1 100 0 discriminator 1
  98 007d 75CE     		jne	L4
  99              	LVL9:
 100              	L2:
 103:test.c        ****     }
 104:test.c        **** 
 105:test.c        ****     /* Definition of temporary variables for expression evaluation. */
 106:test.c        ****     int _R00, _R01, _R02, _R03, _R04, _R05, _R06, _R07;
 107:test.c        **** 
 108:test.c        ****     /* A simple test program */
 109:test.c        ****     load(_R02, -1)
GAS LISTING c:\tmp\ccnSEM0y.s 			page 5


 110:test.c        ****     mul(_R02, y)
 111:test.c        ****     load(_R01, 23)
 112:test.c        ****     sub(_R01, _R02)
 113:test.c        ****     load(_R03, -1)
 114:test.c        ****     mul(_R03, z)
 115:test.c        ****     load(_R02, -7)
 116:test.c        ****     add(_R02, _R03)
 101              		.loc 1 116 0
 102 007f BBF9FFFF 		movl	$-7, %ebx
 102      FF
 103 0084 2B5C2414 		subl	20(%esp), %ebx
 104              	LVL10:
 117:test.c        ****     mul(_R01, _R02)
 105              		.loc 1 117 0
 106 0088 6BDB17   		imull	$23, %ebx, %ebx
 107              	LVL11:
 118:test.c        ****     load(_R00, 38)
 119:test.c        ****     add(_R00, _R01)
 120:test.c        ****     add(_R00, 1)
 108              		.loc 1 120 0
 109 008b 83C327   		addl	$39, %ebx
 110              	LVL12:
 111 008e 89DA     		movl	%ebx, %edx
 112 0090 C1FA1F   		sarl	$31, %edx
 113 0093 89D0     		movl	%edx, %eax
 114 0095 31D8     		xorl	%ebx, %eax
 115 0097 29D0     		subl	%edx, %eax
 116 0099 31D2     		xorl	%edx, %edx
 117              	LVL13:
 118              	L8:
 121:test.c        ****     load(_R01, x)
 122:test.c        ****     mod(_R01, 23)
 123:test.c        ****     add(_R00, _R01)
 124:test.c        ****     store(x, _R00)
 125:test.c        ****     store(show, x)
 126:test.c        ****     store(cntLoops, 0)
 127:test.c        ****     load(_R00, x)
 128:test.c        ****     lt(_R00, 0)
 129:test.c        ****     brneq(_R00, _if_1)
 130:test.c        ****     jmp(_end_if_1)
 131:test.c        ****     _if_1:
 132:test.c        ****     load(_R00, -1)
 133:test.c        ****     mul(_R00, x)
 134:test.c        ****     store(x, _R00)
 135:test.c        ****     _end_if_1:
 136:test.c        ****     _loop_2:
 137:test.c        ****     load(_R00, cntLoops)
 138:test.c        ****     add(_R00, 1)
 119              		.loc 1 138 0
 120 009b 83C201   		addl	$1, %edx
 121              	LVL14:
 139:test.c        ****     store(cntLoops, _R00)
 140:test.c        ****     /* Since the loop itself doesn't have a condition will we always find */
 141:test.c        ****     /* an if clause with break statement somewhere inside the loop */
 142:test.c        ****     load(_R00, x)
 143:test.c        ****     leq(_R00, 0)
 144:test.c        ****     brneq(_R00, _if_3)
GAS LISTING c:\tmp\ccnSEM0y.s 			page 6


 122              		.loc 1 144 0
 123 009e 85C0     		testl	%eax, %eax
 124 00a0 741A     		je	L14
 125              	LVL15:
 126              	L17:
 127              	L5:
 145:test.c        ****     jmp(_end_if_3)
 146:test.c        ****     _if_3:
 147:test.c        ****     store(y, 9)
 148:test.c        ****     jmp(_exit_loop_2)
 149:test.c        ****     _end_if_3:
 150:test.c        ****     load(_R00, y)
 151:test.c        ****     add(_R00, x)
 152:test.c        ****     store(y, _R00)
 153:test.c        ****     /* An empty if or else branch should be possible */
 154:test.c        ****     load(_R00, x)
 155:test.c        ****     eq(_R00, 1)
 156:test.c        ****     brneq(_R00, _if_4)
 128              		.loc 1 156 0
 129 00a2 83F801   		cmpl	$1, %eax
 130 00a5 7469     		je	L10
 131              	LDL1:
 132              	LDL2:
 133              	LVL16:
 157:test.c        ****     load(_R00, x)
 158:test.c        ****     sub(_R00, 1)
 159:test.c        ****     store(x, _R00)
 160:test.c        ****     jmp(_end_if_4)
 161:test.c        ****     _if_4:
 162:test.c        ****     _end_if_4:
 163:test.c        ****     load(_R00, x)
 164:test.c        ****     eq(_R00, 2)
 165:test.c        ****     brneq(_R00, _if_5)
 134              		.loc 1 165 0
 135 00a7 8D48FE   		leal	-2(%eax), %ecx
 136 00aa 83F803   		cmpl	$3, %eax
 137 00ad B8000000 		movl	$0, %eax
 137      00
 138              	LVL17:
 139 00b2 0F45C1   		cmovne	%ecx, %eax
 140              	LVL18:
 138:test.c        ****     store(cntLoops, _R00)
 141              		.loc 1 138 0
 142 00b5 83C201   		addl	$1, %edx
 143              	LVL19:
 144:test.c        ****     jmp(_end_if_3)
 144              		.loc 1 144 0
 145 00b8 85C0     		testl	%eax, %eax
 146 00ba 75E6     		jne	L17
 147              	L7:
 148              	L6:
 149              	LVL20:
 150              	L14:
 151              	LDL3:
 152              	LDL4:
 166:test.c        ****     jmp(_end_if_5)
 167:test.c        ****     _if_5:
GAS LISTING c:\tmp\ccnSEM0y.s 			page 7


 168:test.c        ****     load(_R00, x)
 169:test.c        ****     sub(_R00, 1)
 170:test.c        ****     store(x, _R00)
 171:test.c        ****     _end_if_5:
 172:test.c        ****     load(_R00, x)
 173:test.c        ****     gt(_R00, 0)
 174:test.c        ****     brneq(_R00, _if_6)
 175:test.c        ****     jmp(_end_if_6)
 176:test.c        ****     _if_6:
 177:test.c        ****     load(_R00, x)
 178:test.c        ****     sub(_R00, 1)
 179:test.c        ****     store(x, _R00)
 180:test.c        ****     _end_if_6:
 181:test.c        ****     jmp(_loop_2)
 182:test.c        ****     _exit_loop_2:
 183:test.c        ****     /* A final comment */
 184:test.c        **** 
 185:test.c        **** 
 186:test.c        ****     /* All variables are printed at the end as a kind of program output. */
 187:test.c        ****     printf("cntLoops = %d\n", cntLoops);
 153              		.loc 1 187 0
 154 00bc 89542404 		movl	%edx, 4(%esp)
 155 00c0 C7042402 		movl	$LC1, (%esp)
 155      000000
 156 00c7 E8000000 		call	_printf
 156      00
 157              	LVL21:
 188:test.c        ****     printf("show = %d\n", show);
 158              		.loc 1 188 0
 159 00cc 895C2404 		movl	%ebx, 4(%esp)
 160 00d0 C7042411 		movl	$LC2, (%esp)
 160      000000
 161 00d7 E8000000 		call	_printf
 161      00
 162              	LVL22:
 189:test.c        ****     printf("x = %d\n", x);
 163              		.loc 1 189 0
 164 00dc C7442404 		movl	$0, 4(%esp)
 164      00000000 
 165 00e4 C704241C 		movl	$LC3, (%esp)
 165      000000
 166 00eb E8000000 		call	_printf
 166      00
 167              	LVL23:
 190:test.c        ****     printf("y = %d\n", y);
 168              		.loc 1 190 0
 169 00f0 C7442404 		movl	$9, 4(%esp)
 169      09000000 
 170 00f8 C7042424 		movl	$LC4, (%esp)
 170      000000
 171 00ff E8000000 		call	_printf
 171      00
 172              	LVL24:
 191:test.c        **** 
 192:test.c        ****     return 0;
 193:test.c        **** }...
 173              		.loc 1 193 0
GAS LISTING c:\tmp\ccnSEM0y.s 			page 8


 174 0104 8D65F4   		leal	-12(%ebp), %esp
 175              	LVL25:
 176 0107 31C0     		xorl	%eax, %eax
 177 0109 5B       		popl	%ebx
 178              		.cfi_remember_state
 179              		.cfi_restore 3
 180              	LVL26:
 181 010a 5E       		popl	%esi
 182              		.cfi_restore 6
 183 010b 5F       		popl	%edi
 184              		.cfi_restore 7
 185 010c 5D       		popl	%ebp
 186              		.cfi_restore 5
 187              		.cfi_def_cfa 4, 4
 188              	LVL27:
 189 010d C3       		ret
 190              	LVL28:
 191 010e 6690     		.p2align 4,,10
 192              	L10:
 193              		.cfi_restore_state
 194 0110 31C0     		xorl	%eax, %eax
 195              	LVL29:
 196 0112 EB87     		jmp	L8
 197              	LVL30:
 198              	L9:
  94:test.c        ****     int cntLoops=0, show=0, x=0, y=0, z=0;
 199              		.loc 1 94 0
 200 0114 C7442414 		movl	$0, 20(%esp)
 200      00000000 
 201 011c E95EFFFF 		jmp	L2
 201      FF
 202              		.cfi_endproc
 203              	LFE26:
 204              		.section	.text.unlikely,"x"
 205              	LCOLDE5:
 206              		.section	.text.startup,"x"
 207              	LHOTE5:
 208 0121 90909090 		.text
 208      90909090 
 208      90909090 
 208      909090
 209              	Letext0:
 210              		.section	.text.unlikely,"x"
 211              	Letext_cold0:
 212              		.file 2 "c:/programfiles/octave/octave-4.0.3/include/stdlib.h"
 213              		.file 3 "c:/programfiles/octave/octave-4.0.3/include/stdio.h"